Archive member included because of file (symbol)

icomlib.a(printf.o)           ssv6060-main.o (printf)
icomlib.a(boot-hiflying.o)    /tmp/ccMTaEw1.o (boot_main)
icomlib.a(contiki-main.o)     icomlib.a(boot-hiflying.o) (main)
icomlib.a(drv_uart.o)         icomlib.a(printf.o) (drv_uart_tx)
icomlib.a(hw_init.o)          icomlib.a(drv_uart.o) (ssv_delay)
icomlib.a(hw_regs_api.o)      icomlib.a(hw_init.o) (hw_reg_write)
icomlib.a(ssv_lib.o)          icomlib.a(printf.o) (strlen)
icomlib.a(systemconf.o)       icomlib.a(hw_init.o) (gwifistatus)
icomlib.a(wdog_api.o)         icomlib.a(contiki-main.o) (watchdog_process)
icomlib.a(smartSetting.o)     icomlib.a(systemconf.o) (register_smart_feature)
icomlib.a(smartConf.o)        icomlib.a(smartSetting.o) (clearSmartLinkBuf)
icomlib.a(bsp.o)              icomlib.a(hw_init.o) (set_mrx_filter_sta)
icomlib.a(crypthw.o)          icomlib.a(hw_init.o) (g_soc_table)
icomlib.a(dbg-atcmd-api.o)    icomlib.a(hw_init.o) (UpdateConf)
icomlib.a(drv_mac.o)          icomlib.a(dbg-atcmd-api.o) (SET_STA_MAC)
icomlib.a(drv_phy.o)          icomlib.a(hw_init.o) (drv_phy_init)
icomlib.a(drv_pktbuf.o)       icomlib.a(dbg-atcmd-api.o) (setpacketbuf_len)
icomlib.a(drv_pktbuf_slow)    icomlib.a(wdog_api.o) (ssv6xxx_pbuf_dump_reg)
icomlib.a(ieee80211_mgmt.)    icomlib.a(systemconf.o) (reset_AvailableIndex)
icomlib.a(ieee80211_rdc.o)    icomlib.a(dbg-atcmd-api.o) (ieee80211_rdc)
icomlib.a(irq.o)              icomlib.a(wdog_api.o) (irq_mask_disable)
icomlib.a(netstack.o)         icomlib.a(contiki-main.o) (netstack_init)
icomlib.a(powersave.o)        icomlib.a(ieee80211_mgmt.) (is_waketime_alive)
icomlib.a(rate_control.o)     icomlib.a(ieee80211_mgmt.) (init_ratecontrol)
icomlib.a(soft_ap.o)          icomlib.a(hw_init.o) (gwpa_ap)
icomlib.a(ssv6200_rx.o)       icomlib.a(powersave.o) (is_tx_active)
icomlib.a(ssvradio.o)         icomlib.a(ssv6200_rx.o) (ssv6200_radio_retrans)
icomlib.a(wpa.o)              icomlib.a(ieee80211_mgmt.) (init_wpa_ctx)
icomlib.a(sys_status_api.)    icomlib.a(smartConf.o) (get_local_ipaddr)
icomlib.a(aes.o)              icomlib.a(wpa.o) (aes_wrap2)
icomlib.a(arc4.o)             icomlib.a(smartConf.o) (arc4_setkey)
icomlib.a(wep.o)              icomlib.a(ieee80211_mgmt.) (getAuthChallengeTextLen)
icomlib.a(autostart.o)        icomlib.a(contiki-main.o) (autostart_start)
icomlib.a(etimer.o)           icomlib.a(wdog_api.o) (etimer_set)
icomlib.a(process.o)          icomlib.a(powersave.o) (process_exit)
icomlib.a(random.o)           icomlib.a(wpa.o) (random_rand)
icomlib.a(timer.o)            icomlib.a(etimer.o) (timer_set)
icomlib.a(atcmdlib.o)         icomlib.a(ieee80211_mgmt.) (atcmdprintf)
icomlib.a(atcmd_icomm.o)      icomlib.a(contiki-main.o) (at_cmd_start)
icomlib.a(clock.o)            icomlib.a(contiki-main.o) (clock_init)
icomlib.a(console.o)          icomlib.a(contiki-main.o) (console_init)
icomlib.a(drv_flash.o)        icomlib.a(systemconf.o) (drv_flash_get_cache_addr)
icomlib.a(drv_pmu.o)          icomlib.a(powersave.o) (drv_pmu_powersave_mode)
icomlib.a(drv_timer.o)        icomlib.a(soft_ap.o) (hwtmr_stop)
icomlib.a(drv_wdog.o)         icomlib.a(wdog_api.o) (drv_wdog_reboot)
icomlib.a(fence.o)            icomlib.a(bsp.o) (fence_init)
icomlib.a(flash_api.o)        icomlib.a(systemconf.o) (spi_flash_sector_erase)
icomlib.a(smartComm.o)        icomlib.a(smartConf.o) (clear_mac_bssid)
icomlib.a(ssv_lib_slow.o)     icomlib.a(dbg-atcmd-api.o) (mac_atoi)
icomlib.a(swpwm.o)            icomlib.a(clock.o) (initSwPWM)
icomlib.a(userSmart.o)        icomlib.a(ssv6200_rx.o) (rx_process_userSmart)
icomlib.a(hash_alg.o)         icomlib.a(wpa.o) (hmac_md5_cal)
icomlib.a(hmac_md5.o)         icomlib.a(hash_alg.o) (hmac_md5_init)
icomlib.a(hmac_sha1.o)        icomlib.a(hash_alg.o) (hmac_sha1_init)
icomlib.a(ieee80211_mac.o)    icomlib.a(ssv6200_rx.o) (eapoladdr)
icomlib.a(ieee80211_net.o)    icomlib.a(netstack.o) (ieee80211_net)
icomlib.a(sha1.o)             icomlib.a(hmac_sha1.o) (sha1hw_init)
icomlib.a(ssv6200_tx.o)       icomlib.a(ssvradio.o) (ssv6200_transmit)
icomlib.a(md5.o)              icomlib.a(hmac_md5.o) (MD5Init)
icomlib.a(shell-ping.o)       icomlib.a(atcmd_icomm.o) (ping_start)
icomlib.a(drv_fence.o)        icomlib.a(fence.o) (hwfence_init)
icomlib.a(drv_gpio.o)         icomlib.a(swpwm.o) (get_PAD_Addr)
icomlib.a(gpio_api.o)         icomlib.a(swpwm.o) (pinMode)
icomlib.a(drv_mbox.o)         icomlib.a(ssv6200_tx.o) (drv_mailbox_cpu_ff)
icomlib.a(EAPOL.o)            icomlib.a(ieee80211_net.o) (rx_process_eapol)
icomapps.a(atcmd_mqtt.o)      ssv6060-main.o (AT_MQTT_INIT)
icomapps.a(atcmd.o)           icomlib.a(systemconf.o) (update_uart_config)
icomapps.a(bsp_info.o)        icomlib.a(contiki-main.o) (bsp_get_boot_info)
icomapps.a(data_buff.o)       icomapps.a(atcmd_mqtt.o) (free_queue_buff)
icomapps.a(hx_sta_conn.o)     icomlib.a(smartConf.o) (hx_update_ap_info)
icomapps.a(iperf_cmd.o)       ssv6060-main.o (AT_IPERF_CMD)
icomapps.a(key.o)             ssv6060-main.o (F_Proc_KEY)
icomapps.a(MyATCmd.o)         ssv6060-main.o (F_ATCmd_Get_uVer)
icomapps.a(MyThread.o)        icomapps.a(MyATCmd.o) (F_FMTest_SetOpt)
icomapps.a(ota_api.o)         icomapps.a(atcmd.o) (ota_update)
icomapps.a(socket_app.o)      icomapps.a(ota_api.o) (otaProcessDisable)
icomapps.a(soft_ap_init.o)    icomlib.a(soft_ap.o) (g_softap_config)
icomapps.a(UAMisc.o)          icomapps.a(MyThread.o) (F_btVal2Hex_LC)
icomapps.a(UAVersion.o)       ssv6060-main.o (S_Ver)
icomapps.a(wifi_uart_demo.)   ssv6060-main.o (wifiUartDemo_process)
icomapps.a(xmem.o)            icomlib.a(contiki-main.o) (cabrio_flash_init)
icomapps.a(szcloud_intf.o)    icomapps.a(ota_api.o) (save_param)
icomapps.a(szcloud_uart.o)    icomapps.a(key.o) (sz_key_switch_action)
icomapps.a(hx_flash_opt.o)    icomapps.a(hx_sta_conn.o) (hx_update_conn_parameter)
icomapps.a(MyCustSave.o)      icomapps.a(MyThread.o) (F_CustArea_Save)
icomapps.a(net.o)             icomapps.a(wifi_uart_demo.) (init_net_buff)
icomapps.a(uart.o)            icomapps.a(wifi_uart_demo.) (hx_init_parameters)
contikilib.a(mqtt.o)          icomapps.a(atcmd_mqtt.o) (mqtt_register)
contikilib.a(ntp_client.o)    icomlib.a(ieee80211_mgmt.) (ntp_client_Process)
contikilib.a(cfs-coffee.o)    icomapps.a(atcmd.o) (cfs_dump_info)
contikilib.a(dhcp_process.o)  icomlib.a(ieee80211_mgmt.) (dhcp_configure)
contikilib.a(dhcps.o)         icomlib.a(soft_ap.o) (dhcp_dump_info)
contikilib.a(list.o)          icomapps.a(MyThread.o) (list_init)
contikilib.a(resolv.o)        icomapps.a(atcmd.o) (resolv_event_found)
contikilib.a(simple-udp.o)    icomlib.a(smartComm.o) (simple_udp_sendto)
contikilib.a(socket_driver.o)
                              icomapps.a(atcmd.o) (set_tcp_timeout)
contikilib.a(tcp-socket.o)    contikilib.a(mqtt.o) (tcp_socket_register)
contikilib.a(tcpip.o)         icomlib.a(shell-ping.o) (tcpip_output)
contikilib.a(uip_arp.o)       icomlib.a(atcmd_icomm.o) (uip_arp_print)
contikilib.a(uip.o)           contikilib.a(socket_driver.o) (uip_conn)
contikilib.a(uiplib.o)        icomapps.a(atcmd.o) (uiplib_ip4addrconv)
contikilib.a(uip-udp-packet.)
                              contikilib.a(resolv.o) (uip_udp_packet_sendto)
contikilib.a(dhcpc.o)         contikilib.a(dhcp_process.o) (getDhcpState)
icomlib.a(ctimer.o)           icomapps.a(MyThread.o) (ctimer_init)
icomlib.a(pwm_api.o)          icomapps.a(atcmd.o) (enableHwPWM)
icomlib.a(serial_api.o)       icomapps.a(uart.o) (SerialInit)
icomlib.a(ssl_api.o)          icomapps.a(ota_api.o) (SSL_init)
icomlib.a(osdep.o)            icomlib.a(ssl_api.o) (_psTrace)
icomlib.a(tls.o)              icomlib.a(ssl_api.o) (matrixSslNewHelloExtension)
icomlib.a(matrixssl.o)        icomlib.a(ssl_api.o) (matrixSslOpenWithConfig)
icomlib.a(matrixsslApi.o)     icomlib.a(ssl_api.o) (matrixSslNewClientSession)
icomlib.a(sslDecode.o)        icomlib.a(matrixsslApi.o) (matrixSslDecode)
icomlib.a(sslEncode.o)        icomlib.a(matrixsslApi.o) (matrixSslGetEncodedSize)
icomlib.a(drv_pwm.o)          icomlib.a(pwm_api.o) (drv_pwm_specialfreq)
icomlib.a(corelib.o)          icomlib.a(sslDecode.o) (memcmpct)
icomlib.a(prng.o)             icomlib.a(sslEncode.o) (matrixCryptoGetPrngData)
icomlib.a(sha1ssl.o)          icomlib.a(sslDecode.o) (psSha1Init)
icomlib.a(sha256.o)           icomlib.a(sslDecode.o) (sha256_compress)
icomlib.a(hmac.o)             icomlib.a(tls.o) (psHmacSha1Init)
icomlib.a(pstm.o)             icomlib.a(matrixssl.o) (pstm_cmp)
icomlib.a(pstmmonreduce.o)    icomlib.a(pstm.o) (pstm_montgomery_reduce)
icomlib.a(pstmsqrcomba.o)     icomlib.a(pstm.o) (pstm_sqr_comba)
icomlib.a(pstmmulcomba.o)     icomlib.a(pstm.o) (pstm_mul_comba)
icomlib.a(pubkey.o)           icomlib.a(matrixssl.o) (psCryptoOpen)
icomlib.a(rsa.o)              icomlib.a(pubkey.o) (psRsaFreeKey)
icomlib.a(pkcs.o)             icomlib.a(rsa.o) (pkcs1Pad)
icomlib.a(asn1.o)             icomlib.a(rsa.o) (getAsnLength)
icomlib.a(base64.o)           icomlib.a(pkcs.o) (psBase64decode)
icomlib.a(x509.o)             icomlib.a(matrixsslApi.o) (psX509ValidateGeneralName)
icomlib.a(prf.o)              icomlib.a(tls.o) (prf)
icomlib.a(cipherSuite.o)      icomlib.a(sslEncode.o) (csRsaEncryptPub)
icomlib.a(hsHash.o)           icomlib.a(sslDecode.o) (sslInitHSHash)
icomlib.a(time.o)             icomlib.a(x509.o) (icomm_localtime)
./thirdPartyLib/libdtlib.a(common_general_)
                              icomapps.a(szcloud_intf.o) (get_CRC)
./thirdPartyLib/libdtlib.a(udp_listen.o)
                              icomapps.a(szcloud_intf.o) (dt_system_param_init)
./thirdPartyLib/libdtlib.a(dt_mqtt.o)
                              ./thirdPartyLib/libdtlib.a(udp_listen.o) (DT_mqtt_ping)
./thirdPartyLib/libdtlib.a(dt_tcp_serve.o)
                              ./thirdPartyLib/libdtlib.a(dt_mqtt.o) (dt_tcp_send)
/usr/bin/../lib/gcc/arm-none-eabi/4.8.4/libgcc.a(_udivsi3.o)
                              icomlib.a(printf.o) (__aeabi_uidiv)
/usr/bin/../lib/gcc/arm-none-eabi/4.8.4/libgcc.a(_divsi3.o)
                              icomlib.a(dbg-atcmd-api.o) (__aeabi_idiv)
/usr/bin/../lib/gcc/arm-none-eabi/4.8.4/libgcc.a(_dvmd_tls.o)
                              /usr/bin/../lib/gcc/arm-none-eabi/4.8.4/libgcc.a(_udivsi3.o) (__aeabi_idiv0)
/usr/bin/../lib/gcc/arm-none-eabi/4.8.4/libgcc.a(_aeabi_ldivmod.o)
                              contikilib.a(ntp_client.o) (__aeabi_ldivmod)
/usr/bin/../lib/gcc/arm-none-eabi/4.8.4/libgcc.a(_aeabi_uldivmod.o)
                              icomlib.a(dbg-atcmd-api.o) (__aeabi_uldivmod)
/usr/bin/../lib/gcc/arm-none-eabi/4.8.4/libgcc.a(bpabi.o)
                              /usr/bin/../lib/gcc/arm-none-eabi/4.8.4/libgcc.a(_aeabi_ldivmod.o) (__gnu_ldivmod_helper)
/usr/bin/../lib/gcc/arm-none-eabi/4.8.4/libgcc.a(_divdi3.o)
                              /usr/bin/../lib/gcc/arm-none-eabi/4.8.4/libgcc.a(bpabi.o) (__divdi3)
/usr/bin/../lib/gcc/arm-none-eabi/4.8.4/libgcc.a(_udivdi3.o)
                              /usr/bin/../lib/gcc/arm-none-eabi/4.8.4/libgcc.a(bpabi.o) (__udivdi3)
/usr/bin/../lib/gcc/arm-none-eabi/4.8.4/libgcc.a(_clzsi2.o)
                              /usr/bin/../lib/gcc/arm-none-eabi/4.8.4/libgcc.a(_divdi3.o) (__clzsi2)
/usr/bin/../lib/gcc/arm-none-eabi/4.8.4/../../../../arm-none-eabi/lib/libg_s.a(lib_a-atoi.o)
                              icomlib.a(dbg-atcmd-api.o) (atoi)
/usr/bin/../lib/gcc/arm-none-eabi/4.8.4/../../../../arm-none-eabi/lib/libg_s.a(lib_a-ctype_.o)
                              icomapps.a(net.o) (__ctype_ptr__)
/usr/bin/../lib/gcc/arm-none-eabi/4.8.4/../../../../arm-none-eabi/lib/libg_s.a(lib_a-errno.o)
                              icomlib.a(ssv_lib.o) (__errno)
/usr/bin/../lib/gcc/arm-none-eabi/4.8.4/../../../../arm-none-eabi/lib/libg_s.a(lib_a-impure.o)
                              /usr/bin/../lib/gcc/arm-none-eabi/4.8.4/../../../../arm-none-eabi/lib/libg_s.a(lib_a-errno.o) (_impure_ptr)
/usr/bin/../lib/gcc/arm-none-eabi/4.8.4/../../../../arm-none-eabi/lib/libg_s.a(lib_a-malloc.o)
                              icomlib.a(flash_api.o) (malloc)
/usr/bin/../lib/gcc/arm-none-eabi/4.8.4/../../../../arm-none-eabi/lib/libg_s.a(lib_a-memmove.o)
                              icomlib.a(aes.o) (memmove)
/usr/bin/../lib/gcc/arm-none-eabi/4.8.4/../../../../arm-none-eabi/lib/libg_s.a(lib_a-mstats.o)
                              icomlib.a(ssv_lib.o) (mallinfo)
/usr/bin/../lib/gcc/arm-none-eabi/4.8.4/../../../../arm-none-eabi/lib/libg_s.a(lib_a-nano-freer.o)
                              /usr/bin/../lib/gcc/arm-none-eabi/4.8.4/../../../../arm-none-eabi/lib/libg_s.a(lib_a-malloc.o) (_free_r)
/usr/bin/../lib/gcc/arm-none-eabi/4.8.4/../../../../arm-none-eabi/lib/libg_s.a(lib_a-nano-mallinfor.o)
                              /usr/bin/../lib/gcc/arm-none-eabi/4.8.4/../../../../arm-none-eabi/lib/libg_s.a(lib_a-mstats.o) (_mallinfo_r)
/usr/bin/../lib/gcc/arm-none-eabi/4.8.4/../../../../arm-none-eabi/lib/libg_s.a(lib_a-nano-mallocr.o)
                              /usr/bin/../lib/gcc/arm-none-eabi/4.8.4/../../../../arm-none-eabi/lib/libg_s.a(lib_a-malloc.o) (_malloc_r)
/usr/bin/../lib/gcc/arm-none-eabi/4.8.4/../../../../arm-none-eabi/lib/libg_s.a(lib_a-nano-malloptr.o)
                              /usr/bin/../lib/gcc/arm-none-eabi/4.8.4/../../../../arm-none-eabi/lib/libg_s.a(lib_a-mstats.o) (_mallopt_r)
/usr/bin/../lib/gcc/arm-none-eabi/4.8.4/../../../../arm-none-eabi/lib/libg_s.a(lib_a-nano-mallstatsr.o)
                              /usr/bin/../lib/gcc/arm-none-eabi/4.8.4/../../../../arm-none-eabi/lib/libg_s.a(lib_a-mstats.o) (_malloc_stats_r)
/usr/bin/../lib/gcc/arm-none-eabi/4.8.4/../../../../arm-none-eabi/lib/libg_s.a(lib_a-rand.o)
                              icomlib.a(random.o) (srand)
/usr/bin/../lib/gcc/arm-none-eabi/4.8.4/../../../../arm-none-eabi/lib/libg_s.a(lib_a-realloc.o)
                              icomlib.a(matrixsslApi.o) (realloc)
/usr/bin/../lib/gcc/arm-none-eabi/4.8.4/../../../../arm-none-eabi/lib/libg_s.a(lib_a-sbrkr.o)
                              /usr/bin/../lib/gcc/arm-none-eabi/4.8.4/../../../../arm-none-eabi/lib/libg_s.a(lib_a-nano-mallinfor.o) (_sbrk_r)
/usr/bin/../lib/gcc/arm-none-eabi/4.8.4/../../../../arm-none-eabi/lib/libg_s.a(lib_a-strcasecmp.o)
                              icomapps.a(hx_flash_opt.o) (strcasecmp)
/usr/bin/../lib/gcc/arm-none-eabi/4.8.4/../../../../arm-none-eabi/lib/libg_s.a(lib_a-strchr.o)
                              icomlib.a(matrixssl.o) (strchr)
/usr/bin/../lib/gcc/arm-none-eabi/4.8.4/../../../../arm-none-eabi/lib/libg_s.a(lib_a-strcpy.o)
                              icomlib.a(atcmd_icomm.o) (strcpy)
/usr/bin/../lib/gcc/arm-none-eabi/4.8.4/../../../../arm-none-eabi/lib/libg_s.a(lib_a-strncmp.o)
                              icomlib.a(dbg-atcmd-api.o) (strncmp)
/usr/bin/../lib/gcc/arm-none-eabi/4.8.4/../../../../arm-none-eabi/lib/libg_s.a(lib_a-strrchr.o)
                              ./thirdPartyLib/libdtlib.a(common_general_) (strrchr)
/usr/bin/../lib/gcc/arm-none-eabi/4.8.4/../../../../arm-none-eabi/lib/libg_s.a(lib_a-strstr.o)
                              icomapps.a(net.o) (strstr)
/usr/bin/../lib/gcc/arm-none-eabi/4.8.4/../../../../arm-none-eabi/lib/libg_s.a(lib_a-strtol.o)
                              /usr/bin/../lib/gcc/arm-none-eabi/4.8.4/../../../../arm-none-eabi/lib/libg_s.a(lib_a-atoi.o) (_strtol_r)
/usr/bin/../lib/gcc/arm-none-eabi/4.8.4/../../../../arm-none-eabi/lib/libg_s.a(lib_a-strtoul.o)
                              icomlib.a(dbg-atcmd-api.o) (strtoul)
/usr/bin/../lib/gcc/arm-none-eabi/4.8.4/../../../../arm-none-eabi/lib/libg_s.a(lib_a-findfp.o)
                              /usr/bin/../lib/gcc/arm-none-eabi/4.8.4/../../../../arm-none-eabi/lib/libg_s.a(lib_a-mstats.o) (__sinit)
/usr/bin/../lib/gcc/arm-none-eabi/4.8.4/../../../../arm-none-eabi/lib/libg_s.a(lib_a-fprintf.o)
                              /usr/bin/../lib/gcc/arm-none-eabi/4.8.4/../../../../arm-none-eabi/lib/libg_s.a(lib_a-mstats.o) (fiprintf)
/usr/bin/../lib/gcc/arm-none-eabi/4.8.4/../../../../arm-none-eabi/lib/libg_s.a(lib_a-fwalk.o)
                              /usr/bin/../lib/gcc/arm-none-eabi/4.8.4/../../../../arm-none-eabi/lib/libg_s.a(lib_a-findfp.o) (_fwalk)
/usr/bin/../lib/gcc/arm-none-eabi/4.8.4/../../../../arm-none-eabi/lib/libg_s.a(lib_a-nano-reallocr.o)
                              /usr/bin/../lib/gcc/arm-none-eabi/4.8.4/../../../../arm-none-eabi/lib/libg_s.a(lib_a-realloc.o) (_realloc_r)
/usr/bin/../lib/gcc/arm-none-eabi/4.8.4/../../../../arm-none-eabi/lib/libg_s.a(lib_a-reent.o)
                              /usr/bin/../lib/gcc/arm-none-eabi/4.8.4/../../../../arm-none-eabi/lib/libg_s.a(lib_a-sbrkr.o) (errno)
/usr/bin/../lib/gcc/arm-none-eabi/4.8.4/../../../../arm-none-eabi/lib/libg_s.a(lib_a-stdio.o)
                              /usr/bin/../lib/gcc/arm-none-eabi/4.8.4/../../../../arm-none-eabi/lib/libg_s.a(lib_a-findfp.o) (__sread)
/usr/bin/../lib/gcc/arm-none-eabi/4.8.4/../../../../arm-none-eabi/lib/libg_s.a(lib_a-vfprintf.o)
                              /usr/bin/../lib/gcc/arm-none-eabi/4.8.4/../../../../arm-none-eabi/lib/libg_s.a(lib_a-fprintf.o) (_vfprintf_r)
/usr/bin/../lib/gcc/arm-none-eabi/4.8.4/../../../../arm-none-eabi/lib/libg_s.a(lib_a-vfprintf_i.o)
                              /usr/bin/../lib/gcc/arm-none-eabi/4.8.4/../../../../arm-none-eabi/lib/libg_s.a(lib_a-vfprintf.o) (_printf_i)
/usr/bin/../lib/gcc/arm-none-eabi/4.8.4/../../../../arm-none-eabi/lib/libg_s.a(lib_a-wbuf.o)
                              /usr/bin/../lib/gcc/arm-none-eabi/4.8.4/../../../../arm-none-eabi/lib/libg_s.a(lib_a-vfprintf.o) (__swbuf_r)
/usr/bin/../lib/gcc/arm-none-eabi/4.8.4/../../../../arm-none-eabi/lib/libg_s.a(lib_a-writer.o)
                              /usr/bin/../lib/gcc/arm-none-eabi/4.8.4/../../../../arm-none-eabi/lib/libg_s.a(lib_a-stdio.o) (_write_r)
/usr/bin/../lib/gcc/arm-none-eabi/4.8.4/../../../../arm-none-eabi/lib/libg_s.a(lib_a-wsetup.o)
                              /usr/bin/../lib/gcc/arm-none-eabi/4.8.4/../../../../arm-none-eabi/lib/libg_s.a(lib_a-vfprintf.o) (__swsetup_r)
/usr/bin/../lib/gcc/arm-none-eabi/4.8.4/../../../../arm-none-eabi/lib/libg_s.a(lib_a-closer.o)
                              /usr/bin/../lib/gcc/arm-none-eabi/4.8.4/../../../../arm-none-eabi/lib/libg_s.a(lib_a-stdio.o) (_close_r)
/usr/bin/../lib/gcc/arm-none-eabi/4.8.4/../../../../arm-none-eabi/lib/libg_s.a(lib_a-fflush.o)
                              /usr/bin/../lib/gcc/arm-none-eabi/4.8.4/../../../../arm-none-eabi/lib/libg_s.a(lib_a-findfp.o) (_fflush_r)
/usr/bin/../lib/gcc/arm-none-eabi/4.8.4/../../../../arm-none-eabi/lib/libg_s.a(lib_a-fvwrite.o)
                              /usr/bin/../lib/gcc/arm-none-eabi/4.8.4/../../../../arm-none-eabi/lib/libg_s.a(lib_a-vfprintf.o) (__sfvwrite_r)
/usr/bin/../lib/gcc/arm-none-eabi/4.8.4/../../../../arm-none-eabi/lib/libg_s.a(lib_a-lseekr.o)
                              /usr/bin/../lib/gcc/arm-none-eabi/4.8.4/../../../../arm-none-eabi/lib/libg_s.a(lib_a-stdio.o) (_lseek_r)
/usr/bin/../lib/gcc/arm-none-eabi/4.8.4/../../../../arm-none-eabi/lib/libg_s.a(lib_a-makebuf.o)
                              /usr/bin/../lib/gcc/arm-none-eabi/4.8.4/../../../../arm-none-eabi/lib/libg_s.a(lib_a-wsetup.o) (__smakebuf_r)
/usr/bin/../lib/gcc/arm-none-eabi/4.8.4/../../../../arm-none-eabi/lib/libg_s.a(lib_a-memchr-stub.o)
                              /usr/bin/../lib/gcc/arm-none-eabi/4.8.4/../../../../arm-none-eabi/lib/libg_s.a(lib_a-vfprintf.o) (memchr)
/usr/bin/../lib/gcc/arm-none-eabi/4.8.4/../../../../arm-none-eabi/lib/libg_s.a(lib_a-nano-msizer.o)
                              /usr/bin/../lib/gcc/arm-none-eabi/4.8.4/../../../../arm-none-eabi/lib/libg_s.a(lib_a-nano-reallocr.o) (_malloc_usable_size_r)
/usr/bin/../lib/gcc/arm-none-eabi/4.8.4/../../../../arm-none-eabi/lib/libg_s.a(lib_a-readr.o)
                              /usr/bin/../lib/gcc/arm-none-eabi/4.8.4/../../../../arm-none-eabi/lib/libg_s.a(lib_a-stdio.o) (_read_r)
/usr/bin/../lib/gcc/arm-none-eabi/4.8.4/../../../../arm-none-eabi/lib/libg_s.a(lib_a-fstatr.o)
                              /usr/bin/../lib/gcc/arm-none-eabi/4.8.4/../../../../arm-none-eabi/lib/libg_s.a(lib_a-makebuf.o) (_fstat_r)
/usr/bin/../lib/gcc/arm-none-eabi/4.8.4/../../../../arm-none-eabi/lib/libg_s.a(lib_a-isattyr.o)
                              /usr/bin/../lib/gcc/arm-none-eabi/4.8.4/../../../../arm-none-eabi/lib/libg_s.a(lib_a-makebuf.o) (_isatty_r)
/usr/bin/../lib/gcc/arm-none-eabi/4.8.4/../../../../arm-none-eabi/lib/libnosys.a(close.o)
                              /usr/bin/../lib/gcc/arm-none-eabi/4.8.4/../../../../arm-none-eabi/lib/libg_s.a(lib_a-closer.o) (_close)
/usr/bin/../lib/gcc/arm-none-eabi/4.8.4/../../../../arm-none-eabi/lib/libnosys.a(fstat.o)
                              /usr/bin/../lib/gcc/arm-none-eabi/4.8.4/../../../../arm-none-eabi/lib/libg_s.a(lib_a-fstatr.o) (_fstat)
/usr/bin/../lib/gcc/arm-none-eabi/4.8.4/../../../../arm-none-eabi/lib/libnosys.a(isatty.o)
                              /usr/bin/../lib/gcc/arm-none-eabi/4.8.4/../../../../arm-none-eabi/lib/libg_s.a(lib_a-isattyr.o) (_isatty)
/usr/bin/../lib/gcc/arm-none-eabi/4.8.4/../../../../arm-none-eabi/lib/libnosys.a(lseek.o)
                              /usr/bin/../lib/gcc/arm-none-eabi/4.8.4/../../../../arm-none-eabi/lib/libg_s.a(lib_a-lseekr.o) (_lseek)
/usr/bin/../lib/gcc/arm-none-eabi/4.8.4/../../../../arm-none-eabi/lib/libnosys.a(read.o)
                              /usr/bin/../lib/gcc/arm-none-eabi/4.8.4/../../../../arm-none-eabi/lib/libg_s.a(lib_a-readr.o) (_read)
/usr/bin/../lib/gcc/arm-none-eabi/4.8.4/../../../../arm-none-eabi/lib/libnosys.a(write.o)
                              /usr/bin/../lib/gcc/arm-none-eabi/4.8.4/../../../../arm-none-eabi/lib/libg_s.a(lib_a-writer.o) (_write)

Allocating common symbols
Common symbol       size              file

pHost               0x4               icomapps.a(net.o)
os_tbeg_dst         0x4               icomlib.a(boot-hiflying.o)
arp_packet_len      0x2               ssv6060-main.o
msg_fw_up_end       0x20              icomlib.a(boot-hiflying.o)
reg_ADR_TXQ4_MTX_Q_MISC_EN
                    0x4               icomlib.a(soft_ap.o)
app_res             0x110             icomapps.a(data_buff.o)
os_bss_end          0x4               icomlib.a(boot-hiflying.o)
resolv_event_found  0x1               contikilib.a(resolv.o)
atcmd_ctx           0x110             icomlib.a(atcmdlib.o)
uip_len             0x2               contikilib.a(uip.o)
now_seconds         0x4               contikilib.a(ntp_client.o)
ty_mqtt_rx_queue    0x18              icomapps.a(atcmd_mqtt.o)
gNextsleeptime      0x10              icomlib.a(powersave.o)
arp_packet_buff     0x50              ssv6060-main.o
errno               0x4               /usr/bin/../lib/gcc/arm-none-eabi/4.8.4/../../../../arm-none-eabi/lib/libg_s.a(lib_a-reent.o)
gSocketNetStatus    0x4               icomlib.a(smartComm.o)
event_post          0x1               icomapps.a(MyThread.o)
gussleeptime        0x8               icomlib.a(powersave.o)
mqtt_update_event   0x1               contikilib.a(mqtt.o)
rate_table          0x20              icomlib.a(ieee80211_mgmt.)
uip_sappdata        0x4               contikilib.a(uip.o)
tcp_user_callb      0x10              icomapps.a(szcloud_intf.o)
uip_acc32           0x4               contikilib.a(uip.o)
os_bss_beg          0x4               icomlib.a(boot-hiflying.o)
os_tend_dst         0x4               icomlib.a(boot-hiflying.o)
u32cmd_lenx         0x4               icomlib.a(drv_flash.o)
tx_pktbuf           0x8               icomlib.a(hw_init.o)
func_connect_ap     0x4               icomapps.a(MyThread.o)
gwifistatus         0x1e0             icomlib.a(systemconf.o)
uip_aligned_buf     0x5ec             contikilib.a(uip.o)
uip_flags           0x1               contikilib.a(uip.o)
mqtt_user_callb     0x10              icomapps.a(szcloud_intf.o)
packetBuffer        0x30              contikilib.a(ntp_client.o)
broker              0x5c              ./thirdPartyLib/libdtlib.a(dt_mqtt.o)
g_soc_table         0x4               icomlib.a(crypthw.o)
ty_mqtt_tx_queue    0x18              icomapps.a(atcmd_mqtt.o)
g_softap_lease      0x50              icomapps.a(soft_ap_init.o)
rx_skb              0x18              icomlib.a(ieee80211_mac.o)
hekr_is_login_process
                    0x1               icomapps.a(net.o)
ota_conf            0x3fc             icomapps.a(ota_api.o)
msg_fw_up_start     0x40              icomlib.a(boot-hiflying.o)
gCabrioConf         0xa4              icomlib.a(systemconf.o)
uart_rx_queue       0x18              icomapps.a(uart.o)
sslrecv             0x1f4             contikilib.a(mqtt.o)
eapoltxcnt          0x4               icomlib.a(ieee80211_mac.o)
uip_udp_conn        0x4               contikilib.a(uip.o)
sk_pbuff            0x18              icomlib.a(hw_init.o)
ap_list             0x1194            ssv6060-main.o
boot_au32spi_data   0x104             icomlib.a(boot-hiflying.o)
beacon_buffer       0x80              icomlib.a(soft_ap.o)
save_param          0x5cc             ./thirdPartyLib/libdtlib.a(common_general_)
R_btaSerialNUmber   0x10              icomapps.a(MyThread.o)
i_config            0x80              icomlib.a(contiki-main.o)
mgmtdata            0x10c             icomlib.a(ieee80211_mgmt.)
g_softap_config     0x18              icomapps.a(soft_ap_init.o)
gNextwaketime       0x10              icomlib.a(powersave.o)
uip_appdata         0x4               contikilib.a(uip.o)
uip_conn            0x4               contikilib.a(uip.o)
tcpip_event         0x1               contikilib.a(tcpip.o)
rxBUF               0x4               contikilib.a(uip.o)
os_dbeg_dst         0x4               icomlib.a(boot-hiflying.o)
uip_conns           0x258             contikilib.a(uip.o)
uart_tx_queue       0x18              icomapps.a(uart.o)
i_cabrio_flash_cmd  0x12              icomlib.a(drv_flash.o)
boot_au32spi_cmd    0x104             icomlib.a(boot-hiflying.o)
os_dbeg_src         0x4               icomlib.a(boot-hiflying.o)
eapoladdr           0x4               icomlib.a(ieee80211_mac.o)
nPingEcho           0x4               icomlib.a(ieee80211_net.o)
current_daytime     0x24              icomapps.a(hx_sta_conn.o)
wep_rc4             0x108             icomlib.a(wep.o)
msg_restart         0x20              icomlib.a(boot-hiflying.o)
CMD_NUM             0x1               ssv6060-main.o
p_uart_rx_buff      0x4               icomapps.a(uart.o)
cb_reconnect_ap     0x4               icomapps.a(MyThread.o)
reg_ADR_TXQ4_MTX_Q_BKF_CNT
                    0x4               icomlib.a(soft_ap.o)
exmode              0x1               icomlib.a(powersave.o)
R_u64MyThread_StartTime
                    0x8               icomapps.a(MyThread.o)
msg_fw_upgrade      0x20              icomlib.a(boot-hiflying.o)
addr_stack_fence_local
                    0x4               icomlib.a(fence.o)
reg_ADR_TXQ4_MTX_Q_AIFSN
                    0x4               icomlib.a(soft_ap.o)
DATA_STATUS         0x1               ssv6060-main.o
uip_listenports     0x14              contikilib.a(uip.o)
uip_draddr          0x4               contikilib.a(uip.o)
reg_ADR_TXQ3_MTX_Q_AIFSN
                    0x4               icomlib.a(soft_ap.o)
gwpa_ap             0x118             icomlib.a(soft_ap.o)
specialchar         0x1               icomlib.a(atcmdlib.o)
rssiLevelChangCnt   0x1               icomlib.a(ieee80211_mgmt.)
papd_ltbl_pm        0x68              icomlib.a(drv_phy.o)
func_do_with_uart_queue
                    0x4               icomapps.a(wifi_uart_demo.)
wifi_station_info   0x14              icomapps.a(szcloud_intf.o)
eventdata           0x10c             contikilib.a(dhcpc.o)
os_tbeg_src         0x4               icomlib.a(boot-hiflying.o)
msg_main            0x20              icomlib.a(boot-hiflying.o)
smart_rc4           0x108             icomlib.a(smartConf.o)
rx_que              0x608             icomlib.a(ssv6200_rx.o)
amsg                0x100             icomlib.a(boot-hiflying.o)
u32spi_addr         0x4               icomlib.a(drv_flash.o)
process_para        0x2               ssv6060-main.o
u32cmd_len          0x4               icomlib.a(drv_flash.o)
gusbeaconinterval   0x8               icomlib.a(powersave.o)
uip_netmask         0x4               contikilib.a(uip.o)
user_flash_data     0x22              icomapps.a(szcloud_intf.o)
uip_hostaddr        0x4               contikilib.a(uip.o)
boot_flash_cache_buffer
                    0x1000            icomlib.a(boot-hiflying.o)
i_boot_cabrio_flash_cmd
                    0xc               icomlib.a(boot-hiflying.o)
pGSRAM_KEY          0x4               icomlib.a(crypthw.o)
wep                 0xbf2             icomlib.a(wep.o)
papd_ltbl_am        0x68              icomlib.a(drv_phy.o)
extended_rate_table
                    0x20              icomlib.a(ieee80211_mgmt.)
cb_disconnect_ap    0x4               icomapps.a(MyThread.o)
os_dend_dst         0x4               icomlib.a(boot-hiflying.o)
gwpa_ctx            0x118             icomlib.a(ieee80211_mgmt.)
uip_slen            0x2               contikilib.a(uip.o)
gNetStatus          0xc               icomlib.a(atcmd_icomm.o)
uip_udp_conns       0x190             contikilib.a(uip.o)

Memory Configuration

Name             Origin             Length             Attributes
flash            0x03000000         0x00080000         xr
ram              0x02000000         0x00030000         xrw
*default*        0x00000000         0xffffffff

Linker script and memory map

                0x00080000                _flash_size_ = 0x80000
                0x00030000                _ram_size_ = 0x30000
                0x02030000                __stack_end__ = (ORIGIN (ram) + 0x30000)
                0x00004000                _boot_size = 0x4000
                0x03000000                . = ORIGIN (flash)
                0x03000000                _sitxt0 = .

startup         0x03000000      0x190
 *(.startup1)
 .startup1      0x03000000       0x50 /tmp/ccMTaEw1.o
 *(.startup2)
 .startup2      0x03000050      0x140 /tmp/ccMTaEw1.o
                0x03000164                endless_loop
                0x03000190                . = ALIGN (0x10)
                0x02029000                _vma_boot_text_beg = ((ORIGIN (ram) + 0x30000) - 0x7000)
                0x03000190                _sitxt0a = (_sitxt0 + SIZEOF (startup))
                0x03004000                . = (ORIGIN (flash) + _boot_size)
                0x03004000                _sitxt2 = .

prog_in_flash   0x03004000    0x46708
 *(.vars_second_boot)
 .vars_second_boot
                0x03004000       0x48 /tmp/ccMTaEw1.o
 icomlib.a:contiki-main.o(.text.startup.main)
 .text.startup.main
                0x03004048      0x10c icomlib.a(contiki-main.o)
                0x03004048                main
 *(EXCLUDE_FILE(icomlib.a:ssv_lib.o icomlib.a:sha256.o icomlib.a:sha384.o icomlib.a:sha512.o icomlib.a:pstmsqrcomba.o icomlib.a:pstmmulcomba.o icomlib.a:pstmmonreduce.o icomlib.a:pstm.o icomlib.a:aes.o icomlib.a:sha1ssl.o contikilib.a:socket_driver.o icomlib.a:powersave.o icomlib.a:hw_regs_api.o icomlib.a:flash_api.o icomlib.a:drv_flash.o icomlib.a:xmem.o icomlib.a:soft_ap.o icomlib.a:debug-uart.o icomlib.a:printf.o icomlib.a:rate_control.o icomlib.a:ssv6200_tx.o icomlib.a:ssv6200_rx.o icomlib.a:ssvradio.o icomlib.a:drv_pktbuf.o icomlib.a:packetbuf.o icomlib.a:ieee80211_rdc.o icomlib.a:ieee80211_net.o contikilib.a:tcpip.o icomlib.a:etimer.o icomlib.a:clock.o icomlib.a:timer.o contikilib.a:uip-split.o contikilib.a:uip.o icomlib.a:boot-hiflying.o /usr/bin/../lib/gcc/arm-none-eabi/4.8.4/libgcc.a:_udivsi3.o /usr/bin/../lib/gcc/arm-none-eabi/4.8.4/libgcc.a:_divsi3.o /usr/bin/../lib/gcc/arm-none-eabi/4.8.4/libgcc.a:_dvmd_tls.o /usr/bin/../lib/gcc/arm-none-eabi/4.8.4/libgcc.a:_udivdi3.o /usr/bin/../lib/gcc/arm-none-eabi/4.8.4/libgcc.a:bpabi.o /usr/bin/../lib/gcc/arm-none-eabi/4.8.4/libgcc.a:_divdi3.o /usr/bin/../lib/gcc/arm-none-eabi/4.8.4/libgcc.a:_aeabi_uldivmod.o) .text*)
 .text          0x03004154        0x0 /tmp/ccMTaEw1.o
 .text          0x03004154       0x54 /tmp/ccSraQUE.o
                0x03004158                relocate
 .text          0x030041a8        0x0 ssv6060-main.o
 .text.process_thread_main_process
                0x030041a8       0x5c ssv6060-main.o
 .text.AT_HIDE_MSG
                0x03004204       0xe8 ssv6060-main.o
                0x03004204                AT_HIDE_MSG
 .text          0x030042ec        0x0 icomlib.a(contiki-main.o)
 .text.test_rtimer
                0x030042ec        0xc icomlib.a(contiki-main.o)
                0x030042ec                test_rtimer
 .text.send_frame_rtimer
                0x030042f8        0xc icomlib.a(contiki-main.o)
                0x030042f8                send_frame_rtimer
 .text.dump_boot_message
                0x03004304       0x60 icomlib.a(contiki-main.o)
                0x03004304                dump_boot_message
 .text.get_all_config
                0x03004364       0x38 icomlib.a(contiki-main.o)
                0x03004364                get_all_config
 .text.log_init
                0x0300439c       0x78 icomlib.a(contiki-main.o)
                0x0300439c                log_init
 .text          0x03004414        0x0 icomlib.a(drv_uart.o)
 .text.drv_uart_init
                0x03004414       0x78 icomlib.a(drv_uart.o)
                0x03004414                drv_uart_init
 .text.drv_uart_tx_0
                0x0300448c        0xc icomlib.a(drv_uart.o)
                0x0300448c                drv_uart_tx_0
 .text.drv_uart_is_tx_busy_0
                0x03004498       0x18 icomlib.a(drv_uart.o)
                0x03004498                drv_uart_is_tx_busy_0
 .text.drv_uart_multiple_tx_0
                0x030044b0       0x34 icomlib.a(drv_uart.o)
                0x030044b0                drv_uart_multiple_tx_0
 .text.drv_uart_get_uart_fifo_length_0
                0x030044e4        0x8 icomlib.a(drv_uart.o)
                0x030044e4                drv_uart_get_uart_fifo_length_0
 .text.drv_uart_enable_tx_int_0
                0x030044ec       0x14 icomlib.a(drv_uart.o)
                0x030044ec                drv_uart_enable_tx_int_0
 .text.drv_uart_disable_tx_int_0
                0x03004500       0x14 icomlib.a(drv_uart.o)
                0x03004500                drv_uart_disable_tx_int_0
 .text.drv_uart_enable_rx_int_0
                0x03004514       0x14 icomlib.a(drv_uart.o)
                0x03004514                drv_uart_enable_rx_int_0
 .text.drv_uart_disable_rx_int_0
                0x03004528       0x14 icomlib.a(drv_uart.o)
                0x03004528                drv_uart_disable_rx_int_0
 .text.drv_datauart_init
                0x0300453c      0x160 icomlib.a(drv_uart.o)
                0x0300453c                drv_datauart_init
 .text.drv_datauart_Deinit
                0x0300469c       0x58 icomlib.a(drv_uart.o)
                0x0300469c                drv_datauart_Deinit
 .text.drv_datauart_conf
                0x030046f4       0x7c icomlib.a(drv_uart.o)
                0x030046f4                drv_datauart_conf
 .text          0x03004770        0x0 icomlib.a(hw_init.o)
 .text.hw_tbl_write
                0x03004770       0x60 icomlib.a(hw_init.o)
 .text.modulator_and_pll_reset
                0x030047d0       0xd4 icomlib.a(hw_init.o)
                0x030047d0                modulator_and_pll_reset
 .text.ssv6xxx_phy_disable
                0x030048a4       0x14 icomlib.a(hw_init.o)
                0x030048a4                ssv6xxx_phy_disable
 .text.ssv6xxx_mac_disable
                0x030048b8       0x14 icomlib.a(hw_init.o)
                0x030048b8                ssv6xxx_mac_disable
 .text.ssv6xxx_hw_rf_phy_mac_reset
                0x030048cc      0x228 icomlib.a(hw_init.o)
                0x030048cc                ssv6xxx_hw_rf_phy_mac_reset
 .text.ssv6xxx_hw_radio_init
                0x03004af4      0x1b0 icomlib.a(hw_init.o)
                0x03004af4                ssv6xxx_hw_radio_init
 .text          0x03004ca4        0x0 icomlib.a(systemconf.o)
 .text.gconfig_gen_header_to_mem
                0x03004ca4       0x3c icomlib.a(systemconf.o)
                0x03004ca4                gconfig_gen_header_to_mem
 .text.gconfig_gen_config_to_mem
                0x03004ce0       0x48 icomlib.a(systemconf.o)
                0x03004ce0                gconfig_gen_config_to_mem
 .text.gconfig_gen_config_table
                0x03004d28      0x114 icomlib.a(systemconf.o)
                0x03004d28                gconfig_gen_config_table
 .text.gconfig_save_config
                0x03004e3c       0x48 icomlib.a(systemconf.o)
                0x03004e3c                gconfig_save_config
 .text.gconfig_set_softap_ssid
                0x03004e84       0xb0 icomlib.a(systemconf.o)
                0x03004e84                gconfig_set_softap_ssid
 .text.gconfig_set_enable_smart
                0x03004f34       0x74 icomlib.a(systemconf.o)
                0x03004f34                gconfig_set_enable_smart
 .text.gconfig_set_auto_connect
                0x03004fa8       0x40 icomlib.a(systemconf.o)
                0x03004fa8                gconfig_set_auto_connect
 .text.gconfig_init_global_conf_by_define
                0x03004fe8       0x14 icomlib.a(systemconf.o)
                0x03004fe8                gconfig_init_global_conf_by_define
 .text.reset_global_conf
                0x03004ffc       0x3c icomlib.a(systemconf.o)
                0x03004ffc                reset_global_conf
 .text.remove_sysconfig
                0x03005038       0x58 icomlib.a(systemconf.o)
                0x03005038                remove_sysconfig
 .text.write_wifi_config
                0x03005090       0xa4 icomlib.a(systemconf.o)
                0x03005090                write_wifi_config
 .text.read_wifi_config
                0x03005134       0x90 icomlib.a(systemconf.o)
                0x03005134                read_wifi_config
 .text.init_global_conf
                0x030051c4      0x10c icomlib.a(systemconf.o)
                0x030051c4                init_global_conf
 .text.clear_ap_lists
                0x030052d0       0x3c icomlib.a(systemconf.o)
                0x030052d0                clear_ap_lists
 .text          0x0300530c        0x0 icomlib.a(wdog_api.o)
 .text.process_thread_watchdog_process
                0x0300530c       0xe8 icomlib.a(wdog_api.o)
 .text.api_wdog_reboot
                0x030053f4        0x4 icomlib.a(wdog_api.o)
                0x030053f4                api_wdog_reboot
 .text.api_wdog_period_5000ms
                0x030053f8        0x4 icomlib.a(wdog_api.o)
                0x030053f8                api_wdog_period_5000ms
 .text.api_wdog_period_10000ms
                0x030053fc        0x4 icomlib.a(wdog_api.o)
                0x030053fc                api_wdog_period_10000ms
 .text.api_wdog_period_cutommed
                0x03005400        0x4 icomlib.a(wdog_api.o)
                0x03005400                api_wdog_period_cutommed
 .text.api_wdog_stop
                0x03005404        0x4 icomlib.a(wdog_api.o)
                0x03005404                api_wdog_stop
 .text.clear_rx_fifo
                0x03005408       0xc8 icomlib.a(wdog_api.o)
                0x03005408                clear_rx_fifo
 .text          0x030054d0        0x0 icomlib.a(smartSetting.o)
 .text.init_smart_feature
                0x030054d0       0x24 icomlib.a(smartSetting.o)
                0x030054d0                init_smart_feature
 .text.clear_smart_feature_buf
                0x030054f4       0x24 icomlib.a(smartSetting.o)
                0x030054f4                clear_smart_feature_buf
 .text.register_smart_feature
                0x03005518       0x88 icomlib.a(smartSetting.o)
                0x03005518                register_smart_feature
 .text          0x030055a0        0x0 icomlib.a(smartConf.o)
 .text.clearSmartLinkBuf
                0x030055a0       0x74 icomlib.a(smartConf.o)
                0x030055a0                clearSmartLinkBuf
 .text.clearAllSmartLinkBuf
                0x03005614       0x48 icomlib.a(smartConf.o)
                0x03005614                clearAllSmartLinkBuf
 .text.resetSmartLink
                0x0300565c       0x50 icomlib.a(smartConf.o)
                0x0300565c                resetSmartLink
 .text.process_thread_smart_conf_process
                0x030056ac      0x1a0 icomlib.a(smartConf.o)
 .text.initSmartLink
                0x0300584c       0xc0 icomlib.a(smartConf.o)
                0x0300584c                initSmartLink
 .text          0x0300590c        0x0 icomlib.a(bsp.o)
 .text.set_mrx_filter_sta
                0x0300590c      0x264 icomlib.a(bsp.o)
                0x0300590c                set_mrx_filter_sta
 .text.set_softap_trap_enable
                0x03005b70       0x14 icomlib.a(bsp.o)
                0x03005b70                set_softap_trap_enable
 .text.set_softap_trap_disable
                0x03005b84       0x14 icomlib.a(bsp.o)
                0x03005b84                set_softap_trap_disable
 .text.set_mrx_filter_softap_beacon_on
                0x03005b98       0x20 icomlib.a(bsp.o)
                0x03005b98                set_mrx_filter_softap_beacon_on
 .text.set_mrx_filter_softap_beacon_off
                0x03005bb8       0x20 icomlib.a(bsp.o)
                0x03005bb8                set_mrx_filter_softap_beacon_off
 .text.set_mrx_filter_softap
                0x03005bd8      0x260 icomlib.a(bsp.o)
                0x03005bd8                set_mrx_filter_softap
 .text.chk_chip_valid
                0x03005e38       0x2c icomlib.a(bsp.o)
                0x03005e38                chk_chip_valid
 .text.bsp_init
                0x03005e64       0x8c icomlib.a(bsp.o)
                0x03005e64                bsp_init
 .text.enable_dcdc_mode
                0x03005ef0       0x20 icomlib.a(bsp.o)
                0x03005ef0                enable_dcdc_mode
 .text          0x03005f10        0x0 icomlib.a(crypthw.o)
 .text.drv_id_mng_alloc
                0x03005f10       0x7c icomlib.a(crypthw.o)
                0x03005f10                drv_id_mng_alloc
 .text.PBUF_MAlloc_Raw
                0x03005f8c       0x50 icomlib.a(crypthw.o)
                0x03005f8c                PBUF_MAlloc_Raw
 .text.wpa_drv_init
                0x03005fdc       0x40 icomlib.a(crypthw.o)
                0x03005fdc                wpa_drv_init
 .text.soft_mac_init
                0x0300601c       0x68 icomlib.a(crypthw.o)
                0x0300601c                soft_mac_init
 .text          0x03006084        0x0 icomlib.a(dbg-atcmd-api.o)
 .text.Index2Power
                0x03006084       0x20 icomlib.a(dbg-atcmd-api.o)
                0x03006084                Index2Power
 .text.LogTemperature
                0x030060a4       0x94 icomlib.a(dbg-atcmd-api.o)
                0x030060a4                LogTemperature
 .text.Channel2Index
                0x03006138       0x1c icomlib.a(dbg-atcmd-api.o)
                0x03006138                Channel2Index
 .text.Gain2Power
                0x03006154      0x15c icomlib.a(dbg-atcmd-api.o)
                0x03006154                Gain2Power
 .text.Power2BGain
                0x030062b0      0x1a0 icomlib.a(dbg-atcmd-api.o)
                0x030062b0                Power2BGain
 .text.Power2GGain
                0x03006450      0x1a0 icomlib.a(dbg-atcmd-api.o)
                0x03006450                Power2GGain
 .text.GetDefaultGain
                0x030065f0       0xb4 icomlib.a(dbg-atcmd-api.o)
                0x030065f0                GetDefaultGain
 .text.Freq2P   0x030066a4       0x14 icomlib.a(dbg-atcmd-api.o)
                0x030066a4                Freq2P
 .text.Freq2N   0x030066b8       0x14 icomlib.a(dbg-atcmd-api.o)
                0x030066b8                Freq2N
 .text.GetLDO1  0x030066cc       0x14 icomlib.a(dbg-atcmd-api.o)
                0x030066cc                GetLDO1
 .text.GetLDO2  0x030066e0        0xc icomlib.a(dbg-atcmd-api.o)
                0x030066e0                GetLDO2
 .text.GetPA1   0x030066ec        0xc icomlib.a(dbg-atcmd-api.o)
                0x030066ec                GetPA1
 .text.GetPA2   0x030066f8       0x10 icomlib.a(dbg-atcmd-api.o)
                0x030066f8                GetPA2
 .text.GetPA3   0x03006708        0xc icomlib.a(dbg-atcmd-api.o)
                0x03006708                GetPA3
 .text.Param2Table
                0x03006714      0x288 icomlib.a(dbg-atcmd-api.o)
                0x03006714                Param2Table
 .text.Flash2Table
                0x0300699c       0x40 icomlib.a(dbg-atcmd-api.o)
                0x0300699c                Flash2Table
 .text.Register2Table
                0x030069dc       0xd4 icomlib.a(dbg-atcmd-api.o)
                0x030069dc                Register2Table
 .text.UpdateConf
                0x03006ab0      0x3b4 icomlib.a(dbg-atcmd-api.o)
                0x03006ab0                UpdateConf
 .text.drv_phy_wait_rdy2
                0x03006e64       0x30 icomlib.a(dbg-atcmd-api.o)
                0x03006e64                drv_phy_wait_rdy2
 .text.mac_transfer
                0x03006e94       0x40 icomlib.a(dbg-atcmd-api.o)
                0x03006e94                mac_transfer
 .text.serial_transfer
                0x03006ed4       0x58 icomlib.a(dbg-atcmd-api.o)
                0x03006ed4                serial_transfer
 .text._DBG_AT_SET_PEERMAC
                0x03006f2c       0x2c icomlib.a(dbg-atcmd-api.o)
                0x03006f2c                _DBG_AT_SET_PEERMAC
 .text._DBG_AT_SET_PEERMAC_SOFTAP
                0x03006f58       0x38 icomlib.a(dbg-atcmd-api.o)
                0x03006f58                _DBG_AT_SET_PEERMAC_SOFTAP
 .text._DBG_AT_RESET_PEERMAC_SOFTAP
                0x03006f90       0x38 icomlib.a(dbg-atcmd-api.o)
                0x03006f90                _DBG_AT_RESET_PEERMAC_SOFTAP
 .text._DBG_AT_SET_CHANNEL
                0x03006fc8       0x50 icomlib.a(dbg-atcmd-api.o)
                0x03006fc8                _DBG_AT_SET_CHANNEL
 .text._DBG_AT_SET_MAC
                0x03007018        0x4 icomlib.a(dbg-atcmd-api.o)
                0x03007018                _DBG_AT_SET_MAC
 .text._DBG_AT_SET_BSSID
                0x0300701c        0x4 icomlib.a(dbg-atcmd-api.o)
                0x0300701c                _DBG_AT_SET_BSSID
 .text._DBG_AT_SEND
                0x03007020       0x58 icomlib.a(dbg-atcmd-api.o)
                0x03007020                _DBG_AT_SEND
 .text.process_thread_start_tx_process
                0x03007078      0x120 icomlib.a(dbg-atcmd-api.o)
 .text.RFStart  0x03007198      0x2c0 icomlib.a(dbg-atcmd-api.o)
                0x03007198                RFStart
 .text.RFRate   0x03007458      0x2c0 icomlib.a(dbg-atcmd-api.o)
                0x03007458                RFRate
 .text.RFBGain  0x03007718       0xa4 icomlib.a(dbg-atcmd-api.o)
                0x03007718                RFBGain
 .text.RFGNGain
                0x030077bc       0xa4 icomlib.a(dbg-atcmd-api.o)
                0x030077bc                RFGNGain
 .text.RFIQPhase
                0x03007860       0xbc icomlib.a(dbg-atcmd-api.o)
                0x03007860                RFIQPhase
 .text.RFIQAmp  0x0300791c       0xbc icomlib.a(dbg-atcmd-api.o)
                0x0300791c                RFIQAmp
 .text.RFStop   0x030079d8       0x38 icomlib.a(dbg-atcmd-api.o)
                0x030079d8                RFStop
 .text.RFReset  0x03007a10      0x444 icomlib.a(dbg-atcmd-api.o)
                0x03007a10                RFReset
 .text.RFCount  0x03007e54       0x64 icomlib.a(dbg-atcmd-api.o)
                0x03007e54                RFCount
 .text.RFFreqOffset
                0x03007eb8      0x124 icomlib.a(dbg-atcmd-api.o)
                0x03007eb8                RFFreqOffset
 .text.RFTempcsHT
                0x03007fdc       0xd4 icomlib.a(dbg-atcmd-api.o)
                0x03007fdc                RFTempcsHT
 .text.RFTempcsRT
                0x030080b0       0xd4 icomlib.a(dbg-atcmd-api.o)
                0x030080b0                RFTempcsRT
 .text.RFTempcsLT
                0x03008184       0xd4 icomlib.a(dbg-atcmd-api.o)
                0x03008184                RFTempcsLT
 .text.ReadTemperature
                0x03008258       0xd4 icomlib.a(dbg-atcmd-api.o)
                0x03008258                ReadTemperature
 .text.process_thread_temperature_compensator_process
                0x0300832c      0x30c icomlib.a(dbg-atcmd-api.o)
 .text.EnableTemperatureCompensator
                0x03008638       0x1c icomlib.a(dbg-atcmd-api.o)
                0x03008638                EnableTemperatureCompensator
 .text.DumpRFParam
                0x03008654      0x104 icomlib.a(dbg-atcmd-api.o)
                0x03008654                DumpRFParam
 .text.WriteTable2Flash
                0x03008758       0xe8 icomlib.a(dbg-atcmd-api.o)
                0x03008758                WriteTable2Flash
 .text.RFSetLDO
                0x03008840       0x9c icomlib.a(dbg-atcmd-api.o)
                0x03008840                RFSetLDO
 .text.RFSetPA1
                0x030088dc       0x78 icomlib.a(dbg-atcmd-api.o)
                0x030088dc                RFSetPA1
 .text.RFSetPA2
                0x03008954       0x78 icomlib.a(dbg-atcmd-api.o)
                0x03008954                RFSetPA2
 .text.RFSetPA3
                0x030089cc       0x78 icomlib.a(dbg-atcmd-api.o)
                0x030089cc                RFSetPA3
 .text.RFSetXTAL
                0x03008a44       0x70 icomlib.a(dbg-atcmd-api.o)
                0x03008a44                RFSetXTAL
 .text.RFSetFlashXTAL
                0x03008ab4       0xb4 icomlib.a(dbg-atcmd-api.o)
                0x03008ab4                RFSetFlashXTAL
 .text.SetTemperatureBoundary
                0x03008b68       0xa4 icomlib.a(dbg-atcmd-api.o)
                0x03008b68                SetTemperatureBoundary
 .text.SingleCarrier
                0x03008c0c       0xac icomlib.a(dbg-atcmd-api.o)
                0x03008c0c                SingleCarrier
 .text.WriteMac2Flash
                0x03008cb8       0x9c icomlib.a(dbg-atcmd-api.o)
                0x03008cb8                WriteMac2Flash
 .text.ReadMacFromFlash
                0x03008d54       0x1c icomlib.a(dbg-atcmd-api.o)
                0x03008d54                ReadMacFromFlash
 .text.WriteSerial2Flash
                0x03008d70       0x94 icomlib.a(dbg-atcmd-api.o)
                0x03008d70                WriteSerial2Flash
 .text.ReadSerialFromFlash
                0x03008e04       0x1c icomlib.a(dbg-atcmd-api.o)
                0x03008e04                ReadSerialFromFlash
 .text.SetRFCallback
                0x03008e20       0x1c icomlib.a(dbg-atcmd-api.o)
                0x03008e20                SetRFCallback
 .text.At_RadioChannel
                0x03008e3c       0xb4 icomlib.a(dbg-atcmd-api.o)
                0x03008e3c                At_RadioChannel
 .text.At_RadioRFStart
                0x03008ef0       0x80 icomlib.a(dbg-atcmd-api.o)
                0x03008ef0                At_RadioRFStart
 .text.At_RadioRFRate
                0x03008f70       0x94 icomlib.a(dbg-atcmd-api.o)
                0x03008f70                At_RadioRFRate
 .text.At_RadioRFBGain
                0x03009004       0x90 icomlib.a(dbg-atcmd-api.o)
                0x03009004                At_RadioRFBGain
 .text.At_RadioRFGNGain
                0x03009094       0x90 icomlib.a(dbg-atcmd-api.o)
                0x03009094                At_RadioRFGNGain
 .text.At_RadioRFIQPhase
                0x03009124       0x34 icomlib.a(dbg-atcmd-api.o)
                0x03009124                At_RadioRFIQPhase
 .text.At_RadioRFIQAmp
                0x03009158       0x34 icomlib.a(dbg-atcmd-api.o)
                0x03009158                At_RadioRFIQAmp
 .text.At_RadioRFStop
                0x0300918c       0x3c icomlib.a(dbg-atcmd-api.o)
                0x0300918c                At_RadioRFStop
 .text.At_RadioRFReset
                0x030091c8        0x4 icomlib.a(dbg-atcmd-api.o)
                0x030091c8                At_RadioRFReset
 .text.At_RadioRFCount
                0x030091cc       0x6c icomlib.a(dbg-atcmd-api.o)
                0x030091cc                At_RadioRFCount
 .text.At_RadioRFFreqOffset
                0x03009238       0xa0 icomlib.a(dbg-atcmd-api.o)
                0x03009238                At_RadioRFFreqOffset
 .text.At_RadioRFTempcsHT
                0x030092d8       0x4c icomlib.a(dbg-atcmd-api.o)
                0x030092d8                At_RadioRFTempcsHT
 .text.At_RadioRFTempcsRT
                0x03009324       0x4c icomlib.a(dbg-atcmd-api.o)
                0x03009324                At_RadioRFTempcsRT
 .text.At_RadioRFTempcsLT
                0x03009370       0x4c icomlib.a(dbg-atcmd-api.o)
                0x03009370                At_RadioRFTempcsLT
 .text.At_RadioRFReadTempcs
                0x030093bc       0x38 icomlib.a(dbg-atcmd-api.o)
                0x030093bc                At_RadioRFReadTempcs
 .text.At_RadioRFEnableTCSR
                0x030093f4       0x2c icomlib.a(dbg-atcmd-api.o)
                0x030093f4                At_RadioRFEnableTCSR
 .text.At_RadioRFDump
                0x03009420       0x38 icomlib.a(dbg-atcmd-api.o)
                0x03009420                At_RadioRFDump
 .text.At_RadioRFSetHT
                0x03009458       0x38 icomlib.a(dbg-atcmd-api.o)
                0x03009458                At_RadioRFSetHT
 .text.At_RadioRFSetRT
                0x03009490       0x38 icomlib.a(dbg-atcmd-api.o)
                0x03009490                At_RadioRFSetRT
 .text.At_RadioRFSetLT
                0x030094c8       0x38 icomlib.a(dbg-atcmd-api.o)
                0x030094c8                At_RadioRFSetLT
 .text.At_RadioRFLDO
                0x03009500       0xb4 icomlib.a(dbg-atcmd-api.o)
                0x03009500                At_RadioRFLDO
 .text.At_RadioRFPA1
                0x030095b4       0x94 icomlib.a(dbg-atcmd-api.o)
                0x030095b4                At_RadioRFPA1
 .text.At_RadioRFPA2
                0x03009648       0x94 icomlib.a(dbg-atcmd-api.o)
                0x03009648                At_RadioRFPA2
 .text.At_RadioRFPA3
                0x030096dc       0x94 icomlib.a(dbg-atcmd-api.o)
                0x030096dc                At_RadioRFPA3
 .text.At_RadioRFXTAL
                0x03009770       0x34 icomlib.a(dbg-atcmd-api.o)
                0x03009770                At_RadioRFXTAL
 .text.At_RadioRFFlashXTAL
                0x030097a4       0x60 icomlib.a(dbg-atcmd-api.o)
                0x030097a4                At_RadioRFFlashXTAL
 .text.At_RadioRFTempBoundary
                0x03009804       0xb4 icomlib.a(dbg-atcmd-api.o)
                0x03009804                At_RadioRFTempBoundary
 .text.At_RadioRFSingle
                0x030098b8       0x28 icomlib.a(dbg-atcmd-api.o)
                0x030098b8                At_RadioRFSingle
 .text.At_RadioWriteMAC
                0x030098e0       0x44 icomlib.a(dbg-atcmd-api.o)
                0x030098e0                At_RadioWriteMAC
 .text.At_RadioReadMAC
                0x03009924       0x60 icomlib.a(dbg-atcmd-api.o)
                0x03009924                At_RadioReadMAC
 .text.At_RadioWriteSerial
                0x03009984       0x48 icomlib.a(dbg-atcmd-api.o)
                0x03009984                At_RadioWriteSerial
 .text.At_RadioReadSerial
                0x030099cc       0xb0 icomlib.a(dbg-atcmd-api.o)
                0x030099cc                At_RadioReadSerial
 .text.At_RadioRFRegisterDump
                0x03009a7c       0x50 icomlib.a(dbg-atcmd-api.o)
                0x03009a7c                At_RadioRFRegisterDump
 .text.At_RadioPHYRegisterDump
                0x03009acc       0x38 icomlib.a(dbg-atcmd-api.o)
                0x03009acc                At_RadioPHYRegisterDump
 .text.At_RadioSelfCheck
                0x03009b04      0x470 icomlib.a(dbg-atcmd-api.o)
                0x03009b04                At_RadioSelfCheck
 .text.Radio_Command
                0x03009f74      0x2f0 icomlib.a(dbg-atcmd-api.o)
                0x03009f74                Radio_Command
 .text.Parse_Radio_Command
                0x0300a264       0x88 icomlib.a(dbg-atcmd-api.o)
                0x0300a264                Parse_Radio_Command
 .text          0x0300a2ec        0x0 icomlib.a(drv_mac.o)
 .text.SET_STA_MAC
                0x0300a2ec       0x74 icomlib.a(drv_mac.o)
                0x0300a2ec                SET_STA_MAC
 .text.GET_STA_MAC
                0x0300a360       0x4c icomlib.a(drv_mac.o)
                0x0300a360                GET_STA_MAC
 .text.SET_BSSID
                0x0300a3ac       0x74 icomlib.a(drv_mac.o)
                0x0300a3ac                SET_BSSID
 .text.GET_BSSID
                0x0300a420       0x4c icomlib.a(drv_mac.o)
                0x0300a420                GET_BSSID
 .text.SET_PEER_MAC0
                0x0300a46c       0x74 icomlib.a(drv_mac.o)
                0x0300a46c                SET_PEER_MAC0
 .text.GET_PEER_MAC0
                0x0300a4e0       0x4c icomlib.a(drv_mac.o)
                0x0300a4e0                GET_PEER_MAC0
 .text.SET_PEER_MAC1
                0x0300a52c       0x74 icomlib.a(drv_mac.o)
                0x0300a52c                SET_PEER_MAC1
 .text.GET_PEER_MAC1
                0x0300a5a0       0x4c icomlib.a(drv_mac.o)
                0x0300a5a0                GET_PEER_MAC1
 .text.SET_MRX_MCAST_TB0
                0x0300a5ec       0x74 icomlib.a(drv_mac.o)
                0x0300a5ec                SET_MRX_MCAST_TB0
 .text.GET_MRX_MCAST_TB0
                0x0300a660       0x4c icomlib.a(drv_mac.o)
                0x0300a660                GET_MRX_MCAST_TB0
 .text.SET_MRX_MCAST_TB1
                0x0300a6ac       0x74 icomlib.a(drv_mac.o)
                0x0300a6ac                SET_MRX_MCAST_TB1
 .text.GET_MRX_MCAST_TB1
                0x0300a720       0x4c icomlib.a(drv_mac.o)
                0x0300a720                GET_MRX_MCAST_TB1
 .text.SET_MRX_MCAST_TB2
                0x0300a76c       0x74 icomlib.a(drv_mac.o)
                0x0300a76c                SET_MRX_MCAST_TB2
 .text.GET_MRX_MCAST_TB2
                0x0300a7e0       0x4c icomlib.a(drv_mac.o)
                0x0300a7e0                GET_MRX_MCAST_TB2
 .text.SET_MRX_MCAST_TB3
                0x0300a82c       0x74 icomlib.a(drv_mac.o)
                0x0300a82c                SET_MRX_MCAST_TB3
 .text.GET_MRX_MCAST_TB3
                0x0300a8a0       0x4c icomlib.a(drv_mac.o)
                0x0300a8a0                GET_MRX_MCAST_TB3
 .text.SET_MRX_MCAST_MASK0
                0x0300a8ec       0x74 icomlib.a(drv_mac.o)
                0x0300a8ec                SET_MRX_MCAST_MASK0
 .text.GET_MRX_MCAST_MASK0
                0x0300a960       0x4c icomlib.a(drv_mac.o)
                0x0300a960                GET_MRX_MCAST_MASK0
 .text.SET_MRX_MCAST_MASK1
                0x0300a9ac       0x74 icomlib.a(drv_mac.o)
                0x0300a9ac                SET_MRX_MCAST_MASK1
 .text.GET_MRX_MCAST_MASK1
                0x0300aa20       0x4c icomlib.a(drv_mac.o)
                0x0300aa20                GET_MRX_MCAST_MASK1
 .text.SET_MRX_MCAST_MASK2
                0x0300aa6c       0x74 icomlib.a(drv_mac.o)
                0x0300aa6c                SET_MRX_MCAST_MASK2
 .text.GET_MRX_MCAST_MASK2
                0x0300aae0       0x4c icomlib.a(drv_mac.o)
                0x0300aae0                GET_MRX_MCAST_MASK2
 .text.SET_MRX_MCAST_MASK3
                0x0300ab2c       0x74 icomlib.a(drv_mac.o)
                0x0300ab2c                SET_MRX_MCAST_MASK3
 .text.GET_MRX_MCAST_MASK3
                0x0300aba0       0x4c icomlib.a(drv_mac.o)
                0x0300aba0                GET_MRX_MCAST_MASK3
 .text.SET_BA_TA
                0x0300abec       0x74 icomlib.a(drv_mac.o)
                0x0300abec                SET_BA_TA
 .text.GET_BA_TA
                0x0300ac60       0x4c icomlib.a(drv_mac.o)
                0x0300ac60                GET_BA_TA
 .text.SET_ACK_GEN_RA
                0x0300acac       0x74 icomlib.a(drv_mac.o)
                0x0300acac                SET_ACK_GEN_RA
 .text.GET_ACK_GEN_RA
                0x0300ad20       0x4c icomlib.a(drv_mac.o)
                0x0300ad20                GET_ACK_GEN_RA
 .text          0x0300ad6c        0x0 icomlib.a(drv_phy.o)
 .text.rg_idacai_pgag0_load
                0x0300ad6c       0x1c icomlib.a(drv_phy.o)
                0x0300ad6c                rg_idacai_pgag0_load
 .text.rg_idacai_pgag1_load
                0x0300ad88       0x1c icomlib.a(drv_phy.o)
                0x0300ad88                rg_idacai_pgag1_load
 .text.rg_idacai_pgag2_load
                0x0300ada4       0x1c icomlib.a(drv_phy.o)
                0x0300ada4                rg_idacai_pgag2_load
 .text.rg_idacai_pgag3_load
                0x0300adc0       0x1c icomlib.a(drv_phy.o)
                0x0300adc0                rg_idacai_pgag3_load
 .text.rg_idacai_pgag4_load
                0x0300addc       0x1c icomlib.a(drv_phy.o)
                0x0300addc                rg_idacai_pgag4_load
 .text.rg_idacai_pgag5_load
                0x0300adf8       0x1c icomlib.a(drv_phy.o)
                0x0300adf8                rg_idacai_pgag5_load
 .text.rg_idacai_pgag6_load
                0x0300ae14       0x1c icomlib.a(drv_phy.o)
                0x0300ae14                rg_idacai_pgag6_load
 .text.rg_idacai_pgag7_load
                0x0300ae30       0x1c icomlib.a(drv_phy.o)
                0x0300ae30                rg_idacai_pgag7_load
 .text.rg_idacai_pgag8_load
                0x0300ae4c       0x1c icomlib.a(drv_phy.o)
                0x0300ae4c                rg_idacai_pgag8_load
 .text.rg_idacai_pgag9_load
                0x0300ae68       0x1c icomlib.a(drv_phy.o)
                0x0300ae68                rg_idacai_pgag9_load
 .text.rg_idacai_pgag10_load
                0x0300ae84       0x1c icomlib.a(drv_phy.o)
                0x0300ae84                rg_idacai_pgag10_load
 .text.rg_idacai_pgag11_load
                0x0300aea0       0x1c icomlib.a(drv_phy.o)
                0x0300aea0                rg_idacai_pgag11_load
 .text.rg_idacai_pgag12_load
                0x0300aebc       0x1c icomlib.a(drv_phy.o)
                0x0300aebc                rg_idacai_pgag12_load
 .text.rg_idacai_pgag13_load
                0x0300aed8       0x1c icomlib.a(drv_phy.o)
                0x0300aed8                rg_idacai_pgag13_load
 .text.rg_idacai_pgag14_load
                0x0300aef4       0x1c icomlib.a(drv_phy.o)
                0x0300aef4                rg_idacai_pgag14_load
 .text.rg_idacai_pgag15_load
                0x0300af10       0x1c icomlib.a(drv_phy.o)
                0x0300af10                rg_idacai_pgag15_load
 .text.rg_idacaq_pgag0_load
                0x0300af2c       0x1c icomlib.a(drv_phy.o)
                0x0300af2c                rg_idacaq_pgag0_load
 .text.rg_idacaq_pgag1_load
                0x0300af48       0x1c icomlib.a(drv_phy.o)
                0x0300af48                rg_idacaq_pgag1_load
 .text.rg_idacaq_pgag2_load
                0x0300af64       0x1c icomlib.a(drv_phy.o)
                0x0300af64                rg_idacaq_pgag2_load
 .text.rg_idacaq_pgag3_load
                0x0300af80       0x1c icomlib.a(drv_phy.o)
                0x0300af80                rg_idacaq_pgag3_load
 .text.rg_idacaq_pgag4_load
                0x0300af9c       0x1c icomlib.a(drv_phy.o)
                0x0300af9c                rg_idacaq_pgag4_load
 .text.rg_idacaq_pgag5_load
                0x0300afb8       0x1c icomlib.a(drv_phy.o)
                0x0300afb8                rg_idacaq_pgag5_load
 .text.rg_idacaq_pgag6_load
                0x0300afd4       0x1c icomlib.a(drv_phy.o)
                0x0300afd4                rg_idacaq_pgag6_load
 .text.rg_idacaq_pgag7_load
                0x0300aff0       0x1c icomlib.a(drv_phy.o)
                0x0300aff0                rg_idacaq_pgag7_load
 .text.rg_idacaq_pgag8_load
                0x0300b00c       0x1c icomlib.a(drv_phy.o)
                0x0300b00c                rg_idacaq_pgag8_load
 .text.rg_idacaq_pgag9_load
                0x0300b028       0x1c icomlib.a(drv_phy.o)
                0x0300b028                rg_idacaq_pgag9_load
 .text.rg_idacaq_pgag10_load
                0x0300b044       0x1c icomlib.a(drv_phy.o)
                0x0300b044                rg_idacaq_pgag10_load
 .text.rg_idacaq_pgag11_load
                0x0300b060       0x1c icomlib.a(drv_phy.o)
                0x0300b060                rg_idacaq_pgag11_load
 .text.rg_idacaq_pgag12_load
                0x0300b07c       0x1c icomlib.a(drv_phy.o)
                0x0300b07c                rg_idacaq_pgag12_load
 .text.rg_idacaq_pgag13_load
                0x0300b098       0x1c icomlib.a(drv_phy.o)
                0x0300b098                rg_idacaq_pgag13_load
 .text.rg_idacaq_pgag14_load
                0x0300b0b4       0x1c icomlib.a(drv_phy.o)
                0x0300b0b4                rg_idacaq_pgag14_load
 .text.rg_idacaq_pgag15_load
                0x0300b0d0       0x1c icomlib.a(drv_phy.o)
                0x0300b0d0                rg_idacaq_pgag15_load
 .text.rfreg_byxtal_load
                0x0300b0ec       0x84 icomlib.a(drv_phy.o)
                0x0300b0ec                rfreg_byxtal_load
 .text.rfreg_bych_load
                0x0300b170       0x7c icomlib.a(drv_phy.o)
                0x0300b170                rfreg_bych_load
 .text.rfreg_bypa_load
                0x0300b1ec       0x44 icomlib.a(drv_phy.o)
                0x0300b1ec                rfreg_bypa_load
 .text.drv_phy_tbl_load
                0x0300b230       0x38 icomlib.a(drv_phy.o)
                0x0300b230                drv_phy_tbl_load
 .text.drv_phy_cfgtbl_load
                0x0300b268       0x20 icomlib.a(drv_phy.o)
                0x0300b268                drv_phy_cfgtbl_load
 .text.drv_phy_wait_rdy
                0x0300b288       0x30 icomlib.a(drv_phy.o)
                0x0300b288                drv_phy_wait_rdy
 .text.drv_phy_cali_rcal
                0x0300b2b8       0x68 icomlib.a(drv_phy.o)
                0x0300b2b8                drv_phy_cali_rcal
 .text.drv_phy_cali_tssi
                0x0300b320      0x1b8 icomlib.a(drv_phy.o)
                0x0300b320                drv_phy_cali_tssi
 .text.drv_phy_temperature
                0x0300b4d8       0x90 icomlib.a(drv_phy.o)
                0x0300b4d8                drv_phy_temperature
 .text.drv_phy_cali_papd_learning
                0x0300b568      0x1ec icomlib.a(drv_phy.o)
                0x0300b568                drv_phy_cali_papd_learning
 .text.drv_phy_channel_change
                0x0300b754       0x74 icomlib.a(drv_phy.o)
                0x0300b754                drv_phy_channel_change
 .text.drv_phy_sprm
                0x0300b7c8       0x64 icomlib.a(drv_phy.o)
                0x0300b7c8                drv_phy_sprm
 .text.drv_phy_cali_txlo
                0x0300b82c      0x16c icomlib.a(drv_phy.o)
                0x0300b82c                drv_phy_cali_txlo
 .text.drv_phy_cali_txiq
                0x0300b998      0x160 icomlib.a(drv_phy.o)
                0x0300b998                drv_phy_cali_txiq
 .text.drv_phy_cali_rxrc
                0x0300baf8      0x23c icomlib.a(drv_phy.o)
                0x0300baf8                drv_phy_cali_rxrc
 .text.drv_phy_fft_enrg
                0x0300bd34       0x54 icomlib.a(drv_phy.o)
                0x0300bd34                drv_phy_fft_enrg
 .text.drv_phy_cali_rxiq_fft
                0x0300bd88      0x1a4 icomlib.a(drv_phy.o)
                0x0300bd88                drv_phy_cali_rxiq_fft
 .text.rtbl_cali_reg_rmw
                0x0300bf2c       0x28 icomlib.a(drv_phy.o)
                0x0300bf2c                rtbl_cali_reg_rmw
 .text.rtbl_cali_pre_load
                0x0300bf54       0x68 icomlib.a(drv_phy.o)
                0x0300bf54                rtbl_cali_pre_load
 .text.drv_phy_cali_rxdc
                0x0300bfbc      0x224 icomlib.a(drv_phy.o)
                0x0300bfbc                drv_phy_cali_rxdc
 .text.rtbl_cali_load
                0x0300c1e0       0x24 icomlib.a(drv_phy.o)
                0x0300c1e0                rtbl_cali_load
 .text.rtbl_cali_export
                0x0300c204       0x18 icomlib.a(drv_phy.o)
                0x0300c204                rtbl_cali_export
 .text.rtbl_cali_load_def
                0x0300c21c       0x68 icomlib.a(drv_phy.o)
                0x0300c21c                rtbl_cali_load_def
 .text.rtbl_cali_reset
                0x0300c284       0x38 icomlib.a(drv_phy.o)
                0x0300c284                rtbl_cali_reset
 .text.rtbl_cali_set
                0x0300c2bc       0x84 icomlib.a(drv_phy.o)
                0x0300c2bc                rtbl_cali_set
 .text.drv_phy_init
                0x0300c340       0x90 icomlib.a(drv_phy.o)
                0x0300c340                drv_phy_init
 .text.drv_phy_off
                0x0300c3d0       0x14 icomlib.a(drv_phy.o)
                0x0300c3d0                drv_phy_off
 .text.drv_phy_b_only
                0x0300c3e4       0x10 icomlib.a(drv_phy.o)
                0x0300c3e4                drv_phy_b_only
 .text.drv_phy_bgn
                0x0300c3f4       0x14 icomlib.a(drv_phy.o)
                0x0300c3f4                drv_phy_bgn
 .text.drv_phy_on
                0x0300c408       0x14 icomlib.a(drv_phy.o)
                0x0300c408                drv_phy_on
 .text.drv_phy_cali_ro_iqcal_o
                0x0300c41c        0xc icomlib.a(drv_phy.o)
                0x0300c41c                drv_phy_cali_ro_iqcal_o
 .text.drv_phy_cali_papd_div
                0x0300c428       0x84 icomlib.a(drv_phy.o)
                0x0300c428                drv_phy_cali_papd_div
 .text.drv_phy_cali_papd_gain_est
                0x0300c4ac      0x160 icomlib.a(drv_phy.o)
                0x0300c4ac                drv_phy_cali_papd_gain_est
 .text.drv_phy_cali_ph_wrap
                0x0300c60c       0x1c icomlib.a(drv_phy.o)
                0x0300c60c                drv_phy_cali_ph_wrap
 .text.drv_phy_cali_papd
                0x0300c628      0x5a4 icomlib.a(drv_phy.o)
                0x0300c628                drv_phy_cali_papd
 .text.drv_phy_reg_init
                0x0300cbcc       0xd0 icomlib.a(drv_phy.o)
                0x0300cbcc                drv_phy_reg_init
 .text.drv_phy_cali_rtbl_load
                0x0300cc9c       0x5c icomlib.a(drv_phy.o)
                0x0300cc9c                drv_phy_cali_rtbl_load
 .text.phy_cali_config_load
                0x0300ccf8      0x124 icomlib.a(drv_phy.o)
                0x0300ccf8                phy_cali_config_load
 .text.drv_phy_cali_rtbl_load_def
                0x0300ce1c       0x5c icomlib.a(drv_phy.o)
                0x0300ce1c                drv_phy_cali_rtbl_load_def
 .text.drv_phy_cali_rtbl_reset
                0x0300ce78       0x5c icomlib.a(drv_phy.o)
                0x0300ce78                drv_phy_cali_rtbl_reset
 .text.drv_phy_cali_rtbl_set
                0x0300ced4       0x5c icomlib.a(drv_phy.o)
                0x0300ced4                drv_phy_cali_rtbl_set
 .text.drv_phy_cali_rtbl_export
                0x0300cf30        0x4 icomlib.a(drv_phy.o)
                0x0300cf30                drv_phy_cali_rtbl_export
 .text.drv_phy_init_cali
                0x0300cf34       0xd0 icomlib.a(drv_phy.o)
                0x0300cf34                drv_phy_init_cali
 .text.drv_phy_evm_tk
                0x0300d004       0x5c icomlib.a(drv_phy.o)
                0x0300d004                drv_phy_evm_tk
 .text.drv_phy_tone_tk
                0x0300d060       0x38 icomlib.a(drv_phy.o)
                0x0300d060                drv_phy_tone_tk
 .text          0x0300d098        0x0 icomlib.a(drv_pktbuf_slow)
 .text.ssv6xxx_pbuf_dump_reg
                0x0300d098      0x6a4 icomlib.a(drv_pktbuf_slow)
                0x0300d098                ssv6xxx_pbuf_dump_reg
 .text          0x0300d73c        0x0 icomlib.a(ieee80211_mgmt.)
 .text.process_thread_scan_channel_process
                0x0300d73c       0xbc icomlib.a(ieee80211_mgmt.)
 .text.enableNmode
                0x0300d7f8       0x14 icomlib.a(ieee80211_mgmt.)
                0x0300d7f8                enableNmode
 .text.disableNmode
                0x0300d80c       0x14 icomlib.a(ieee80211_mgmt.)
                0x0300d80c                disableNmode
 .text.change_checkap_cnt
                0x0300d820       0x10 icomlib.a(ieee80211_mgmt.)
                0x0300d820                change_checkap_cnt
 .text.get_checkap_cnt
                0x0300d830       0x10 icomlib.a(ieee80211_mgmt.)
                0x0300d830                get_checkap_cnt
 .text.wificbproc
                0x0300d840       0x44 icomlib.a(ieee80211_mgmt.)
                0x0300d840                wificbproc
 .text.addAvailableIndex
                0x0300d884       0x3c icomlib.a(ieee80211_mgmt.)
                0x0300d884                addAvailableIndex
 .text.reset_AvailableIndex
                0x0300d8c0       0x14 icomlib.a(ieee80211_mgmt.)
                0x0300d8c0                reset_AvailableIndex
 .text.is_action
                0x0300d8d4       0x14 icomlib.a(ieee80211_mgmt.)
                0x0300d8d4                is_action
 .text.htinfo_detect
                0x0300d8e8       0x74 icomlib.a(ieee80211_mgmt.)
                0x0300d8e8                htinfo_detect
 .text.tx_probe_req
                0x0300d95c      0x188 icomlib.a(ieee80211_mgmt.)
                0x0300d95c                tx_probe_req
 .text.process_thread_activescan_process
                0x0300dae4      0x1e0 icomlib.a(ieee80211_mgmt.)
 .text.tx_authentication_req_seq1
                0x0300dcc4      0x168 icomlib.a(ieee80211_mgmt.)
                0x0300dcc4                tx_authentication_req_seq1
 .text.tx_authentication_req_seq3
                0x0300de2c      0x120 icomlib.a(ieee80211_mgmt.)
                0x0300de2c                tx_authentication_req_seq3
 .text.tx_deauthentication_req
                0x0300df4c       0xc4 icomlib.a(ieee80211_mgmt.)
                0x0300df4c                tx_deauthentication_req
 .text.tx_association_req
                0x0300e010      0x254 icomlib.a(ieee80211_mgmt.)
                0x0300e010                tx_association_req
 .text.tx_deassociation_req
                0x0300e264      0x108 icomlib.a(ieee80211_mgmt.)
                0x0300e264                tx_deassociation_req
 .text.tx_action_BA_rsp
                0x0300e36c       0xe4 icomlib.a(ieee80211_mgmt.)
                0x0300e36c                tx_action_BA_rsp
 .text.rx_probe_rsp
                0x0300e450      0x3dc icomlib.a(ieee80211_mgmt.)
                0x0300e450                rx_probe_rsp
 .text.rx_probe_rsp_active
                0x0300e82c       0xac icomlib.a(ieee80211_mgmt.)
                0x0300e82c                rx_probe_rsp_active
 .text.rx_authentication_rsp
                0x0300e8d8      0x1c0 icomlib.a(ieee80211_mgmt.)
                0x0300e8d8                rx_authentication_rsp
 .text.rx_association_rsp
                0x0300ea98       0x98 icomlib.a(ieee80211_mgmt.)
                0x0300ea98                rx_association_rsp
 .text.rx_action_rsp
                0x0300eb30       0x2c icomlib.a(ieee80211_mgmt.)
                0x0300eb30                rx_action_rsp
 .text.rx_disassoc_rsp
                0x0300eb5c       0x94 icomlib.a(ieee80211_mgmt.)
                0x0300eb5c                rx_disassoc_rsp
 .text.rx_deauth_rsp
                0x0300ebf0       0x94 icomlib.a(ieee80211_mgmt.)
                0x0300ebf0                rx_deauth_rsp
 .text.calculateSignalLevel
                0x0300ec84       0x44 icomlib.a(ieee80211_mgmt.)
                0x0300ec84                calculateSignalLevel
 .text.startrecordAP
                0x0300ecc8       0x14 icomlib.a(ieee80211_mgmt.)
                0x0300ecc8                startrecordAP
 .text.stoprecordAP
                0x0300ecdc       0x14 icomlib.a(ieee80211_mgmt.)
                0x0300ecdc                stoprecordAP
 .text.removeAP_fromlist
                0x0300ecf0       0xe0 icomlib.a(ieee80211_mgmt.)
                0x0300ecf0                removeAP_fromlist
 .text.bss_mgmt_reboot
                0x0300edd0       0x60 icomlib.a(ieee80211_mgmt.)
                0x0300edd0                bss_mgmt_reboot
 .text.bss_mgmt_refind_aplist_index
                0x0300ee30      0x1a0 icomlib.a(ieee80211_mgmt.)
                0x0300ee30                bss_mgmt_refind_aplist_index
 .text.process_thread_beacon_process
                0x0300efd0      0x2e4 icomlib.a(ieee80211_mgmt.)
 .text.bss_mgmt_scan
                0x0300f2b4       0x40 icomlib.a(ieee80211_mgmt.)
                0x0300f2b4                bss_mgmt_scan
 .text.bss_mgmt_scan_custom
                0x0300f2f4       0x34 icomlib.a(ieee80211_mgmt.)
                0x0300f2f4                bss_mgmt_scan_custom
 .text.bss_mgmt_connect_active
                0x0300f328      0x12c icomlib.a(ieee80211_mgmt.)
                0x0300f328                bss_mgmt_connect_active
 .text.bss_mgmt_connect
                0x0300f454       0x78 icomlib.a(ieee80211_mgmt.)
                0x0300f454                bss_mgmt_connect
 .text.bss_mgmt_reconnect
                0x0300f4cc       0x70 icomlib.a(ieee80211_mgmt.)
                0x0300f4cc                bss_mgmt_reconnect
 .text.bss_mgmt_disconnect
                0x0300f53c       0x5c icomlib.a(ieee80211_mgmt.)
                0x0300f53c                bss_mgmt_disconnect
 .text.bss_mgmt_init
                0x0300f598       0xd8 icomlib.a(ieee80211_mgmt.)
                0x0300f598                bss_mgmt_init
 .text.startscanchannel
                0x0300f670       0x34 icomlib.a(ieee80211_mgmt.)
                0x0300f670                startscanchannel
 .text.stopscanchannel
                0x0300f6a4       0x28 icomlib.a(ieee80211_mgmt.)
                0x0300f6a4                stopscanchannel
 .text.recordAP
                0x0300f6cc       0x3c icomlib.a(ieee80211_mgmt.)
                0x0300f6cc                recordAP
 .text.removeAP
                0x0300f708       0x5c icomlib.a(ieee80211_mgmt.)
                0x0300f708                removeAP
 .text.process_thread_bss_reconnect_process
                0x0300f764      0x770 icomlib.a(ieee80211_mgmt.)
 .text.bss_nslookup
                0x0300fed4       0x3c icomlib.a(ieee80211_mgmt.)
                0x0300fed4                bss_nslookup
 .text          0x0300ff10        0x0 icomlib.a(irq.o)
 .text.irq_request
                0x0300ff10      0x1c0 icomlib.a(irq.o)
                0x0300ff10                irq_request
 .text.irq_init
                0x030100d0       0xb0 icomlib.a(irq.o)
                0x030100d0                irq_init
 .text          0x03010180        0x0 icomlib.a(netstack.o)
 .text.netstack_init
                0x03010180       0x38 icomlib.a(netstack.o)
                0x03010180                netstack_init
 .text          0x030101b8        0x0 icomlib.a(wpa.o)
 .text.wpa_derive_ptk
                0x030101b8       0xf4 icomlib.a(wpa.o)
 .text.init_wpa_ctx
                0x030102ac       0x58 icomlib.a(wpa.o)
                0x030102ac                init_wpa_ctx
 .text.init_AP_wpa_ctx
                0x03010304       0xe0 icomlib.a(wpa.o)
                0x03010304                init_AP_wpa_ctx
 .text.get_oui_subtype
                0x030103e4       0x50 icomlib.a(wpa.o)
                0x030103e4                get_oui_subtype
 .text.find_group_oui
                0x03010434       0x20 icomlib.a(wpa.o)
                0x03010434                find_group_oui
 .text.find_pairwise_oui_for_autoScan
                0x03010454       0x80 icomlib.a(wpa.o)
                0x03010454                find_pairwise_oui_for_autoScan
 .text.find_pairwise_oui
                0x030104d4       0xf0 icomlib.a(wpa.o)
                0x030104d4                find_pairwise_oui
 .text.find_akm_oui
                0x030105c4       0xec icomlib.a(wpa.o)
                0x030105c4                find_akm_oui
 .text.sec80211_detect
                0x030106b0      0x14c icomlib.a(wpa.o)
                0x030106b0                sec80211_detect
 .text.sec80211_detect_for_autoScan
                0x030107fc       0xe4 icomlib.a(wpa.o)
                0x030107fc                sec80211_detect_for_autoScan
 .text.pack_wpa2
                0x030108e0       0x40 icomlib.a(wpa.o)
                0x030108e0                pack_wpa2
 .text.cal_mic  0x03010920       0x68 icomlib.a(wpa.o)
                0x03010920                cal_mic
 .text.check_mic
                0x03010988       0x74 icomlib.a(wpa.o)
                0x03010988                check_mic
 .text.decrypt_keydata
                0x030109fc       0xb4 icomlib.a(wpa.o)
                0x030109fc                decrypt_keydata
 .text.install_key
                0x03010ab0       0x9c icomlib.a(wpa.o)
                0x03010ab0                install_key
 .text.InitPacketbuffer
                0x03010b4c       0x6c icomlib.a(wpa.o)
                0x03010b4c                InitPacketbuffer
 .text.tx_wpa_2_of_4
                0x03010bb8      0x240 icomlib.a(wpa.o)
                0x03010bb8                tx_wpa_2_of_4
 .text.rx_wpa_1_of_4
                0x03010df8       0x84 icomlib.a(wpa.o)
                0x03010df8                rx_wpa_1_of_4
 .text.tx_wpa_4_of_4
                0x03010e7c      0x234 icomlib.a(wpa.o)
                0x03010e7c                tx_wpa_4_of_4
 .text.rx_wpa_3_of_4
                0x030110b0      0x1cc icomlib.a(wpa.o)
                0x030110b0                rx_wpa_3_of_4
 .text.rx_wpa_1_of_2
                0x0301127c      0x1d0 icomlib.a(wpa.o)
                0x0301127c                rx_wpa_1_of_2
 .text.tx_wpa_1_of_4
                0x0301144c       0xdc icomlib.a(wpa.o)
                0x0301144c                tx_wpa_1_of_4
 .text.rx_wpa_2_of_4
                0x03011528      0x1e0 icomlib.a(wpa.o)
                0x03011528                rx_wpa_2_of_4
 .text.tx_wpa_3_of_4
                0x03011708      0x1d8 icomlib.a(wpa.o)
                0x03011708                tx_wpa_3_of_4
 .text          0x030118e0        0x0 icomlib.a(sys_status_api.)
 .text.get_local_ipaddr
                0x030118e0       0x2c icomlib.a(sys_status_api.)
                0x030118e0                get_local_ipaddr
 .text.get_local_mac
                0x0301190c       0x44 icomlib.a(sys_status_api.)
                0x0301190c                get_local_mac
 .text.get_connectAP_mac
                0x03011950       0x38 icomlib.a(sys_status_api.)
                0x03011950                get_connectAP_mac
 .text.get_wifi_connect_status
                0x03011988       0x10 icomlib.a(sys_status_api.)
                0x03011988                get_wifi_connect_status
 .text.get_wifi_connected
                0x03011998       0x10 icomlib.a(sys_status_api.)
                0x03011998                get_wifi_connected
 .text.get_softap_sta_connected
                0x030119a8       0x3c icomlib.a(sys_status_api.)
                0x030119a8                get_softap_sta_connected
 .text.get_ap_lsit_total_num
                0x030119e4        0x4 icomlib.a(sys_status_api.)
                0x030119e4                get_ap_lsit_total_num
 .text.set_nslookup
                0x030119e8        0x4 icomlib.a(sys_status_api.)
                0x030119e8                set_nslookup
 .text.set_slink_ready_and_ack
                0x030119ec        0x4 icomlib.a(sys_status_api.)
                0x030119ec                set_slink_ready_and_ack
 .text.set_if_config
                0x030119f0       0xcc icomlib.a(sys_status_api.)
                0x030119f0                set_if_config
 .text.get_if_config
                0x03011abc       0xac icomlib.a(sys_status_api.)
                0x03011abc                get_if_config
 .text.set_wifi_config
                0x03011b68      0x1ec icomlib.a(sys_status_api.)
                0x03011b68                set_wifi_config
 .text.get_wifi_config
                0x03011d54       0xac icomlib.a(sys_status_api.)
                0x03011d54                get_wifi_config
 .text.get_ap_list
                0x03011e00       0x5c icomlib.a(sys_status_api.)
                0x03011e00                get_ap_list
 .text.get_connected_ap_info
                0x03011e5c       0x48 icomlib.a(sys_status_api.)
                0x03011e5c                get_connected_ap_info
 .text.scan_AP  0x03011ea4        0x4 icomlib.a(sys_status_api.)
                0x03011ea4                scan_AP
 .text.wifi_connect
                0x03011ea8        0x4 icomlib.a(sys_status_api.)
                0x03011ea8                wifi_connect
 .text.wifi_connect_active
                0x03011eac       0x28 icomlib.a(sys_status_api.)
                0x03011eac                wifi_connect_active
 .text.wifi_disconnect
                0x03011ed4        0x4 icomlib.a(sys_status_api.)
                0x03011ed4                wifi_disconnect
 .text.get_wifi_mode
                0x03011ed8       0x10 icomlib.a(sys_status_api.)
                0x03011ed8                get_wifi_mode
 .text.get_apmode_config
                0x03011ee8       0x9c icomlib.a(sys_status_api.)
                0x03011ee8                get_apmode_config
 .text.get_slink_mode
                0x03011f84       0x10 icomlib.a(sys_status_api.)
                0x03011f84                get_slink_mode
 .text.gConf_set_key_led_mode
                0x03011f94       0x10 icomlib.a(sys_status_api.)
                0x03011f94                gConf_set_key_led_mode
 .text.gConf_get_key_led_mode
                0x03011fa4       0x10 icomlib.a(sys_status_api.)
                0x03011fa4                gConf_get_key_led_mode
 .text          0x03011fb4        0x0 icomlib.a(arc4.o)
 .text          0x03011fb4        0x0 icomlib.a(wep.o)
 .text.crc32_le.constprop.0
                0x03011fb4       0x50 icomlib.a(wep.o)
 .text.getAuthChallengeTextLen
                0x03012004       0x10 icomlib.a(wep.o)
                0x03012004                getAuthChallengeTextLen
 .text.getAuthAlgNum
                0x03012014       0x10 icomlib.a(wep.o)
                0x03012014                getAuthAlgNum
 .text.getAuthSeqNum
                0x03012024       0x10 icomlib.a(wep.o)
                0x03012024                getAuthSeqNum
 .text.getAuthStatus
                0x03012034       0x10 icomlib.a(wep.o)
                0x03012034                getAuthStatus
 .text.SetAuthChallengeText
                0x03012044       0x30 icomlib.a(wep.o)
                0x03012044                SetAuthChallengeText
 .text.SetAuthChallengeTextLen
                0x03012074       0x18 icomlib.a(wep.o)
                0x03012074                SetAuthChallengeTextLen
 .text.SetAuthAlgNum
                0x0301208c       0x10 icomlib.a(wep.o)
                0x0301208c                SetAuthAlgNum
 .text.setAuthSeqNum
                0x0301209c       0x10 icomlib.a(wep.o)
                0x0301209c                setAuthSeqNum
 .text.setAuthStatus
                0x030120ac       0x10 icomlib.a(wep.o)
                0x030120ac                setAuthStatus
 .text.setKeyAndIV
                0x030120bc       0x48 icomlib.a(wep.o)
                0x030120bc                setKeyAndIV
 .text.saveAftEncData
                0x03012104       0x84 icomlib.a(wep.o)
                0x03012104                saveAftEncData
 .text.setBefEncData
                0x03012188       0x84 icomlib.a(wep.o)
                0x03012188                setBefEncData
 .text.getEncDecData
                0x0301220c       0xbc icomlib.a(wep.o)
                0x0301220c                getEncDecData
 .text.encDecSrcData
                0x030122c8       0xa4 icomlib.a(wep.o)
                0x030122c8                encDecSrcData
 .text.initKeyAndIV
                0x0301236c       0x2c icomlib.a(wep.o)
                0x0301236c                initKeyAndIV
 .text.randIV   0x03012398       0x3c icomlib.a(wep.o)
                0x03012398                randIV
 .text.install_wepkey
                0x030123d4       0x28 icomlib.a(wep.o)
                0x030123d4                install_wepkey
 .text.savePassToTotalKey
                0x030123fc      0x1a8 icomlib.a(wep.o)
                0x030123fc                savePassToTotalKey
 .text.initWEP  0x030125a4       0x80 icomlib.a(wep.o)
                0x030125a4                initWEP
 .text.clearParaWithWEP
                0x03012624       0x24 icomlib.a(wep.o)
                0x03012624                clearParaWithWEP
 .text          0x03012648        0x0 icomlib.a(autostart.o)
 .text.autostart_start
                0x03012648       0x24 icomlib.a(autostart.o)
                0x03012648                autostart_start
 .text.autostart_exit
                0x0301266c       0x20 icomlib.a(autostart.o)
                0x0301266c                autostart_exit
 .text          0x0301268c        0x0 icomlib.a(process.o)
 .text.process_alloc_event
                0x0301268c       0x18 icomlib.a(process.o)
                0x0301268c                process_alloc_event
 .text.check_process_in_que
                0x030126a4       0x64 icomlib.a(process.o)
                0x030126a4                check_process_in_que
 .text.process_debug
                0x03012708      0x150 icomlib.a(process.o)
                0x03012708                process_debug
 .text          0x03012858        0x0 icomlib.a(random.o)
 .text.random_init
                0x03012858        0x4 icomlib.a(random.o)
                0x03012858                random_init
 .text.random_rand
                0x0301285c       0x14 icomlib.a(random.o)
                0x0301285c                random_rand
 .text          0x03012870        0x0 icomlib.a(atcmdlib.o)
 .text.atcmdprintf
                0x03012870       0x38 icomlib.a(atcmdlib.o)
                0x03012870                atcmdprintf
 .text.atcmd_init
                0x030128a8      0x10c icomlib.a(atcmdlib.o)
                0x030128a8                atcmd_init
 .text.backecho
                0x030129b4       0x34 icomlib.a(atcmdlib.o)
                0x030129b4                backecho
 .text          0x030129e8        0x0 icomlib.a(atcmd_icomm.o)
 .text.process_thread_Cabrio_ate_process
                0x030129e8      0x13c icomlib.a(atcmd_icomm.o)
 .text.ip2int   0x03012b24       0xe4 icomlib.a(atcmd_icomm.o)
                0x03012b24                ip2int
 .text.At_RespOK
                0x03012c08       0x80 icomlib.a(atcmd_icomm.o)
                0x03012c08                At_RespOK
 .text.process_thread_wifistatus_process
                0x03012c88       0x98 icomlib.a(atcmd_icomm.o)
 .text.At_GetLocalMac
                0x03012d20       0x4c icomlib.a(atcmd_icomm.o)
                0x03012d20                At_GetLocalMac
 .text.At_GetVersion
                0x03012d6c       0x20 icomlib.a(atcmd_icomm.o)
                0x03012d6c                At_GetVersion
 .text.At_GetManufactureInfo
                0x03012d8c       0x20 icomlib.a(atcmd_icomm.o)
                0x03012d8c                At_GetManufactureInfo
 .text.At_SetWifiConfig
                0x03012dac       0xfc icomlib.a(atcmd_icomm.o)
                0x03012dac                At_SetWifiConfig
 .text.At_GetConfigure
                0x03012ea8      0x110 icomlib.a(atcmd_icomm.o)
                0x03012ea8                At_GetConfigure
 .text.At_SetIfConfigure
                0x03012fb8       0xf0 icomlib.a(atcmd_icomm.o)
                0x03012fb8                At_SetIfConfigure
 .text.At_GetNetStatus
                0x030130a8       0x30 icomlib.a(atcmd_icomm.o)
                0x030130a8                At_GetNetStatus
 .text.At_Ping  0x030130d8       0x74 icomlib.a(atcmd_icomm.o)
                0x030130d8                At_Ping
 .text.At_Help  0x0301314c      0x2b8 icomlib.a(atcmd_icomm.o)
                0x0301314c                At_Help
 .text.At_GetApStatus
                0x03013404       0xa4 icomlib.a(atcmd_icomm.o)
                0x03013404                At_GetApStatus
 .text.At_GetSoftapStatus
                0x030134a8      0x1ac icomlib.a(atcmd_icomm.o)
                0x030134a8                At_GetSoftapStatus
 .text.At_GetWifiStatus
                0x03013654      0x300 icomlib.a(atcmd_icomm.o)
                0x03013654                At_GetWifiStatus
 .text.At_GetMRX
                0x03013954      0x130 icomlib.a(atcmd_icomm.o)
                0x03013954                At_GetMRX
 .text.At_TestMemRead
                0x03013a84       0x54 icomlib.a(atcmd_icomm.o)
                0x03013a84                At_TestMemRead
 .text.At_TestMemInfo
                0x03013ad8       0xd4 icomlib.a(atcmd_icomm.o)
                0x03013ad8                At_TestMemInfo
 .text.At_MboxDump
                0x03013bac       0x14 icomlib.a(atcmd_icomm.o)
                0x03013bac                At_MboxDump
 .text.At_PbufDump
                0x03013bc0       0x10 icomlib.a(atcmd_icomm.o)
                0x03013bc0                At_PbufDump
 .text.At_WifiReset
                0x03013bd0       0x10 icomlib.a(atcmd_icomm.o)
                0x03013bd0                At_WifiReset
 .text.At_GetIPconf
                0x03013be0       0xcc icomlib.a(atcmd_icomm.o)
                0x03013be0                At_GetIPconf
 .text.At_NetScan
                0x03013cac       0x14 icomlib.a(atcmd_icomm.o)
                0x03013cac                At_NetScan
 .text.At_NetScan_Custom
                0x03013cc0       0x90 icomlib.a(atcmd_icomm.o)
                0x03013cc0                At_NetScan_Custom
 .text.At_Connect
                0x03013d50       0x14 icomlib.a(atcmd_icomm.o)
                0x03013d50                At_Connect
 .text.At_ReConnect
                0x03013d64       0x14 icomlib.a(atcmd_icomm.o)
                0x03013d64                At_ReConnect
 .text.At_Disconnect
                0x03013d78       0x10 icomlib.a(atcmd_icomm.o)
                0x03013d78                At_Disconnect
 .text.At_POWERSAVE
                0x03013d88       0x30 icomlib.a(atcmd_icomm.o)
                0x03013d88                At_POWERSAVE
 .text.At_WriteReg32
                0x03013db8       0x78 icomlib.a(atcmd_icomm.o)
                0x03013db8                At_WriteReg32
 .text.At_ReadReg32
                0x03013e30       0x44 icomlib.a(atcmd_icomm.o)
                0x03013e30                At_ReadReg32
 .text.At_SetChannel
                0x03013e74       0x40 icomlib.a(atcmd_icomm.o)
                0x03013e74                At_SetChannel
 .text.At_GetRfStatus
                0x03013eb4      0x18c icomlib.a(atcmd_icomm.o)
                0x03013eb4                At_GetRfStatus
 .text.At_ShowRfCommand
                0x03014040      0x24c icomlib.a(atcmd_icomm.o)
                0x03014040                At_ShowRfCommand
 .text.AT_RemoveCfsConf
                0x0301428c        0x4 icomlib.a(atcmd_icomm.o)
                0x0301428c                AT_RemoveCfsConf
 .text.At_bmode_count
                0x03014290       0x44 icomlib.a(atcmd_icomm.o)
                0x03014290                At_bmode_count
 .text.At_bmode_reset
                0x030142d4       0x1c icomlib.a(atcmd_icomm.o)
                0x030142d4                At_bmode_reset
 .text.At_gmode_count
                0x030142f0       0x48 icomlib.a(atcmd_icomm.o)
                0x030142f0                At_gmode_count
 .text.At_gmode_reset
                0x03014338       0x20 icomlib.a(atcmd_icomm.o)
                0x03014338                At_gmode_reset
 .text.At_filter_reset
                0x03014358      0x14c icomlib.a(atcmd_icomm.o)
                0x03014358                At_filter_reset
 .text.At_filter_count
                0x030144a4       0x40 icomlib.a(atcmd_icomm.o)
                0x030144a4                At_filter_count
 .text.At_set_rateindex
                0x030144e4       0x38 icomlib.a(atcmd_icomm.o)
                0x030144e4                At_set_rateindex
 .text.at_cmd_start
                0x0301451c       0x1c icomlib.a(atcmd_icomm.o)
                0x0301451c                at_cmd_start
 .text.at_cmd_exit
                0x03014538       0x18 icomlib.a(atcmd_icomm.o)
                0x03014538                at_cmd_exit
 .text          0x03014550        0x0 icomlib.a(console.o)
 .text.console_init
                0x03014550       0x24 icomlib.a(console.o)
                0x03014550                console_init
 .text          0x03014574        0x0 icomlib.a(drv_pmu.o)
 .text.drv_pmu_tu0
                0x03014574       0x60 icomlib.a(drv_pmu.o)
                0x03014574                drv_pmu_tu0
 .text.drv_pmu_tm0
                0x030145d4       0x60 icomlib.a(drv_pmu.o)
                0x030145d4                drv_pmu_tm0
 .text.drv_pmu_check_interupt_event
                0x03014634       0x20 icomlib.a(drv_pmu.o)
                0x03014634                drv_pmu_check_interupt_event
 .text          0x03014654        0x0 icomlib.a(drv_timer.o)
 .text.hwtmr_stop
                0x03014654       0x20 icomlib.a(drv_timer.o)
                0x03014654                hwtmr_stop
 .text.hwtmr_start
                0x03014674       0x34 icomlib.a(drv_timer.o)
                0x03014674                hwtmr_start
 .text.hwtmr_init
                0x030146a8       0x2c icomlib.a(drv_timer.o)
                0x030146a8                hwtmr_init
 .text          0x030146d4        0x0 icomlib.a(drv_wdog.o)
 .text.drv_wdog_reboot
                0x030146d4       0x48 icomlib.a(drv_wdog.o)
                0x030146d4                drv_wdog_reboot
 .text.drv_wdog_period_5000ms
                0x0301471c       0x50 icomlib.a(drv_wdog.o)
                0x0301471c                drv_wdog_period_5000ms
 .text.drv_wdog_period_10000ms
                0x0301476c       0x50 icomlib.a(drv_wdog.o)
                0x0301476c                drv_wdog_period_10000ms
 .text.drv_wdog_period_cutommed
                0x030147bc       0x48 icomlib.a(drv_wdog.o)
                0x030147bc                drv_wdog_period_cutommed
 .text.drv_wdog_stop
                0x03014804       0x40 icomlib.a(drv_wdog.o)
                0x03014804                drv_wdog_stop
 .text          0x03014844        0x0 icomlib.a(fence.o)
 .text.do_fence
                0x03014844       0x1c icomlib.a(fence.o)
                0x03014844                do_fence
 .text.fence_init
                0x03014860       0x28 icomlib.a(fence.o)
                0x03014860                fence_init
 .text          0x03014888        0x0 icomlib.a(smartComm.o)
 .text.SmartSetChannel
                0x03014888       0x18 icomlib.a(smartComm.o)
                0x03014888                SmartSetChannel
 .text.clear_mac_bssid
                0x030148a0       0x2c icomlib.a(smartComm.o)
                0x030148a0                clear_mac_bssid
 .text.get_now_channel
                0x030148cc       0x10 icomlib.a(smartComm.o)
                0x030148cc                get_now_channel
 .text.get_smart_timer
                0x030148dc       0x10 icomlib.a(smartComm.o)
                0x030148dc                get_smart_timer
 .text.set_smart_timer
                0x030148ec       0x10 icomlib.a(smartComm.o)
                0x030148ec                set_smart_timer
 .text.check_beacon
                0x030148fc       0x10 icomlib.a(smartComm.o)
                0x030148fc                check_beacon
 .text.smart_set_ssid_pass
                0x0301490c       0xb4 icomlib.a(smartComm.o)
                0x0301490c                smart_set_ssid_pass
 .text.set_slink_ready_ack
                0x030149c0       0x10 icomlib.a(smartComm.o)
                0x030149c0                set_slink_ready_ack
 .text.enableSmartHwFilter
                0x030149d0      0x220 icomlib.a(smartComm.o)
                0x030149d0                enableSmartHwFilter
 .text.disableSmartHwFilter
                0x03014bf0      0x248 icomlib.a(smartComm.o)
                0x03014bf0                disableSmartHwFilter
 .text.setSmartCmdStatus
                0x03014e38       0x1c icomlib.a(smartComm.o)
                0x03014e38                setSmartCmdStatus
 .text.disableSendToPhone
                0x03014e54       0x14 icomlib.a(smartComm.o)
                0x03014e54                disableSendToPhone
 .text.getSendToPhoneStatus
                0x03014e68       0x10 icomlib.a(smartComm.o)
                0x03014e68                getSendToPhoneStatus
 .text.enableSendToPhoneData
                0x03014e78       0x14 icomlib.a(smartComm.o)
                0x03014e78                enableSendToPhoneData
 .text.disableSendToPhoneData
                0x03014e8c       0x14 icomlib.a(smartComm.o)
                0x03014e8c                disableSendToPhoneData
 .text.setSmartPhoneIP
                0x03014ea0       0x18 icomlib.a(smartComm.o)
                0x03014ea0                setSmartPhoneIP
 .text.getPhoneMac
                0x03014eb8       0x10 icomlib.a(smartComm.o)
                0x03014eb8                getPhoneMac
 .text.setPhoneMAC
                0x03014ec8       0x18 icomlib.a(smartComm.o)
                0x03014ec8                setPhoneMAC
 .text.setPhoneData
                0x03014ee0       0x20 icomlib.a(smartComm.o)
                0x03014ee0                setPhoneData
 .text.sendMessageToPhone
                0x03014f00      0x124 icomlib.a(smartComm.o)
                0x03014f00                sendMessageToPhone
 .text.process_thread_smart_conf_ack
                0x03015024       0x64 icomlib.a(smartComm.o)
 .text.smartSetIfconfigAndConnect
                0x03015088       0x38 icomlib.a(smartComm.o)
                0x03015088                smartSetIfconfigAndConnect
 .text.smartSetIfconfigAndHideAPConnect
                0x030150c0       0x7c icomlib.a(smartComm.o)
                0x030150c0                smartSetIfconfigAndHideAPConnect
 .text.checkAndConnAP
                0x0301513c      0x100 icomlib.a(smartComm.o)
                0x0301513c                checkAndConnAP
 .text          0x0301523c        0x0 icomlib.a(ssv_lib_slow.o)
 .text.mac_atoi
                0x0301523c       0x44 icomlib.a(ssv_lib_slow.o)
                0x0301523c                mac_atoi
 .text.dbg_dump_reg_pc
                0x03015280       0x10 icomlib.a(ssv_lib_slow.o)
                0x03015280                dbg_dump_reg_pc
 .text.dbg_dump_reg_sp
                0x03015290       0x10 icomlib.a(ssv_lib_slow.o)
                0x03015290                dbg_dump_reg_sp
 .text.dbg_dump_reg_cpsr
                0x030152a0       0xa0 icomlib.a(ssv_lib_slow.o)
                0x030152a0                dbg_dump_reg_cpsr
 .text.dbg_dump_binary
                0x03015340       0x78 icomlib.a(ssv_lib_slow.o)
                0x03015340                dbg_dump_binary
 .text.dbg_dump_instruction
                0x030153b8       0x80 icomlib.a(ssv_lib_slow.o)
                0x030153b8                dbg_dump_instruction
 .text.dbg_dump_mac
                0x03015438       0x48 icomlib.a(ssv_lib_slow.o)
                0x03015438                dbg_dump_mac
 .text.dbg_dump_ip
                0x03015480       0x38 icomlib.a(ssv_lib_slow.o)
                0x03015480                dbg_dump_ip
 .text          0x030154b8        0x0 icomlib.a(swpwm.o)
 .text.initSwPWM
                0x030154b8       0x28 icomlib.a(swpwm.o)
                0x030154b8                initSwPWM
 .text.pwm_unregister
                0x030154e0       0xa0 icomlib.a(swpwm.o)
                0x030154e0                pwm_unregister
 .text.disableSwPWM
                0x03015580       0x34 icomlib.a(swpwm.o)
                0x03015580                disableSwPWM
 .text.pwm_register
                0x030155b4       0xe4 icomlib.a(swpwm.o)
                0x030155b4                pwm_register
 .text.enableSwPWM
                0x03015698       0x6c icomlib.a(swpwm.o)
                0x03015698                enableSwPWM
 .text          0x03015704        0x0 icomlib.a(userSmart.o)
 .text.SET_FILTER_TABLE0
                0x03015704       0x68 icomlib.a(userSmart.o)
                0x03015704                SET_FILTER_TABLE0
 .text.SET_FILTER_TABLE1
                0x0301576c       0x88 icomlib.a(userSmart.o)
                0x0301576c                SET_FILTER_TABLE1
 .text.SET_FILTER_TABLE2
                0x030157f4       0xa0 icomlib.a(userSmart.o)
                0x030157f4                SET_FILTER_TABLE2
 .text.SET_FILTER_TABLE3
                0x03015894       0xc4 icomlib.a(userSmart.o)
                0x03015894                SET_FILTER_TABLE3
 .text.rejectAllFrame
                0x03015958      0x20c icomlib.a(userSmart.o)
                0x03015958                rejectAllFrame
 .text.AutoScanAP
                0x03015b64        0x4 icomlib.a(userSmart.o)
                0x03015b64                AutoScanAP
 .text.userSmartSetChannel
                0x03015b68       0x38 icomlib.a(userSmart.o)
                0x03015b68                userSmartSetChannel
 .text.SetUserReceFilter
                0x03015ba0       0x48 icomlib.a(userSmart.o)
                0x03015ba0                SetUserReceFilter
 .text.EnableUserReceFilter
                0x03015be8       0xa4 icomlib.a(userSmart.o)
                0x03015be8                EnableUserReceFilter
 .text.DisableUserReceFilter
                0x03015c8c       0x3c icomlib.a(userSmart.o)
                0x03015c8c                DisableUserReceFilter
 .text.SetCallBackFunction
                0x03015cc8       0x10 icomlib.a(userSmart.o)
                0x03015cc8                SetCallBackFunction
 .text.EnableCallBackFrame
                0x03015cd8       0x38 icomlib.a(userSmart.o)
                0x03015cd8                EnableCallBackFrame
 .text.DisableCallBackFrame
                0x03015d10       0x18 icomlib.a(userSmart.o)
                0x03015d10                DisableCallBackFrame
 .text.EnableUserSmartMode
                0x03015d28       0xa8 icomlib.a(userSmart.o)
                0x03015d28                EnableUserSmartMode
 .text.DisableUserSmartMode
                0x03015dd0      0x11c icomlib.a(userSmart.o)
                0x03015dd0                DisableUserSmartMode
 .text          0x03015eec        0x0 icomlib.a(hash_alg.o)
 .text          0x03015eec        0x0 icomlib.a(hmac_md5.o)
 .text          0x03015eec        0x0 icomlib.a(hmac_sha1.o)
 .text          0x03015eec        0x0 icomlib.a(ieee80211_mac.o)
 .text.off      0x03015eec       0x18 icomlib.a(ieee80211_mac.o)
 .text.channel_check_interval
                0x03015f04        0x8 icomlib.a(ieee80211_mac.o)
 .text.init     0x03015f0c       0x14 icomlib.a(ieee80211_mac.o)
 .text.on       0x03015f20       0x1c icomlib.a(ieee80211_mac.o)
 .text.dump_data
                0x03015f3c       0x64 icomlib.a(ieee80211_mac.o)
                0x03015f3c                dump_data
 .text.data_decryt
                0x03015fa0       0x80 icomlib.a(ieee80211_mac.o)
                0x03015fa0                data_decryt
 .text          0x03016020        0x0 icomlib.a(sha1.o)
 .text          0x03016020        0x0 icomlib.a(md5.o)
 .text.Encode   0x03016020       0x48 icomlib.a(md5.o)
 .text.MD5Transform
                0x03016068      0xa54 icomlib.a(md5.o)
 .text          0x03016abc        0x0 icomlib.a(shell-ping.o)
 .text.send_ping
                0x03016abc      0x164 icomlib.a(shell-ping.o)
 .text.process_thread_shell_ping_process
                0x03016c20      0x108 icomlib.a(shell-ping.o)
 .text.send_gateway_ping
                0x03016d28        0xc icomlib.a(shell-ping.o)
                0x03016d28                send_gateway_ping
 .text.ping_start
                0x03016d34       0x10 icomlib.a(shell-ping.o)
                0x03016d34                ping_start
 .text          0x03016d44        0x0 icomlib.a(drv_fence.o)
 .text.hwfence_init
                0x03016d44       0x1c icomlib.a(drv_fence.o)
                0x03016d44                hwfence_init
 .text.hwfence_start
                0x03016d60       0x14 icomlib.a(drv_fence.o)
                0x03016d60                hwfence_start
 .text          0x03016d74        0x0 icomlib.a(drv_gpio.o)
 .text.get_PAD_Addr
                0x03016d74       0x28 icomlib.a(drv_gpio.o)
                0x03016d74                get_PAD_Addr
 .text.drv_gpio_Output
                0x03016d9c      0x1e4 icomlib.a(drv_gpio.o)
                0x03016d9c                drv_gpio_Output
 .text.drv_gpio_Input
                0x03016f80       0x88 icomlib.a(drv_gpio.o)
                0x03016f80                drv_gpio_Input
 .text.drv_gpio_write
                0x03017008       0x40 icomlib.a(drv_gpio.o)
                0x03017008                drv_gpio_write
 .text.drv_gpio_read
                0x03017048       0x34 icomlib.a(drv_gpio.o)
                0x03017048                drv_gpio_read
 .text.drv_gpio_set_irq
                0x0301707c      0x118 icomlib.a(drv_gpio.o)
                0x0301707c                drv_gpio_set_irq
 .text.drv_gpio_func
                0x03017194      0x1e8 icomlib.a(drv_gpio.o)
                0x03017194                drv_gpio_func
 .text          0x0301737c        0x0 icomlib.a(gpio_api.o)
 .text.pinMode  0x0301737c       0x44 icomlib.a(gpio_api.o)
                0x0301737c                pinMode
 .text.digitalWrite
                0x030173c0       0x10 icomlib.a(gpio_api.o)
                0x030173c0                digitalWrite
 .text.digitalRead
                0x030173d0        0x4 icomlib.a(gpio_api.o)
                0x030173d0                digitalRead
 .text.gpio_irq_enable
                0x030173d4       0x40 icomlib.a(gpio_api.o)
                0x030173d4                gpio_irq_enable
 .text.gpio_irq_disable
                0x03017414       0x10 icomlib.a(gpio_api.o)
                0x03017414                gpio_irq_disable
 .text          0x03017424        0x0 icomlib.a(drv_mbox.o)
 .text.drv_mailbox_cpu_pri_ff
                0x03017424       0x30 icomlib.a(drv_mbox.o)
                0x03017424                drv_mailbox_cpu_pri_ff
 .text          0x03017454        0x0 icomlib.a(EAPOL.o)
 .text.rx_process_wpa
                0x03017454      0x180 icomlib.a(EAPOL.o)
                0x03017454                rx_process_wpa
 .text.rx_process_eapol
                0x030175d4      0x1a8 icomlib.a(EAPOL.o)
                0x030175d4                rx_process_eapol
 .text.tx_eapol_start_req
                0x0301777c        0x4 icomlib.a(EAPOL.o)
                0x0301777c                tx_eapol_start_req
 .text          0x03017780        0x0 icomapps.a(atcmd_mqtt.o)
 .text.mqtt_event
                0x03017780       0x74 icomapps.a(atcmd_mqtt.o)
 .text.AT_MQTT_INIT
                0x030177f4       0xa0 icomapps.a(atcmd_mqtt.o)
                0x030177f4                AT_MQTT_INIT
 .text.AT_MQTT_CONNECT
                0x03017894       0x48 icomapps.a(atcmd_mqtt.o)
                0x03017894                AT_MQTT_CONNECT
 .text.AT_MQTT_SSL_CONNECT
                0x030178dc       0x74 icomapps.a(atcmd_mqtt.o)
                0x030178dc                AT_MQTT_SSL_CONNECT
 .text.AT_MQTT_DISCONNECT
                0x03017950       0x20 icomapps.a(atcmd_mqtt.o)
                0x03017950                AT_MQTT_DISCONNECT
 .text.AT_MQTT_send_buff
                0x03017970        0x4 icomapps.a(atcmd_mqtt.o)
                0x03017970                AT_MQTT_send_buff
 .text.AT_MQTT_PUBLISH
                0x03017974       0xcc icomapps.a(atcmd_mqtt.o)
                0x03017974                AT_MQTT_PUBLISH
 .text.AT_MQTT_SUBSCRIBE
                0x03017a40       0x78 icomapps.a(atcmd_mqtt.o)
                0x03017a40                AT_MQTT_SUBSCRIBE
 .text.AT_MQTT_UNSUBSCRIBE
                0x03017ab8       0x74 icomapps.a(atcmd_mqtt.o)
                0x03017ab8                AT_MQTT_UNSUBSCRIBE
 .text.AT_MQTT_AUTH
                0x03017b2c       0xa0 icomapps.a(atcmd_mqtt.o)
                0x03017b2c                AT_MQTT_AUTH
 .text.process_thread_mqtt_client_process
                0x03017bcc       0xb0 icomapps.a(atcmd_mqtt.o)
 .text.tuya_get_mqtt_alive
                0x03017c7c       0x1c icomapps.a(atcmd_mqtt.o)
                0x03017c7c                tuya_get_mqtt_alive
 .text.tuya_compare_kv
                0x03017c98       0x90 icomapps.a(atcmd_mqtt.o)
                0x03017c98                tuya_compare_kv
 .text          0x03017d28        0x0 icomapps.a(atcmd.o)
 .text.At_TCPDisconnectCurr
                0x03017d28        0x8 icomapps.a(atcmd.o)
                0x03017d28                At_TCPDisconnectCurr
 .text.At_HTTPTestStop
                0x03017d30       0x14 icomapps.a(atcmd.o)
                0x03017d30                At_HTTPTestStop
 .text.process_thread_poll_tx_process
                0x03017d44       0x6c icomapps.a(atcmd.o)
 .text.process_thread_nslookup_process
                0x03017db0       0xbc icomapps.a(atcmd.o)
 .text.At_ProcessAllQueDump
                0x03017e6c       0x34 icomapps.a(atcmd.o)
                0x03017e6c                At_ProcessAllQueDump
 .text.At_ProcessAllDump
                0x03017ea0       0x34 icomapps.a(atcmd.o)
                0x03017ea0                At_ProcessAllDump
 .text.process_thread_rf_event_process
                0x03017ed4      0x17c icomapps.a(atcmd.o)
 .text.At_EnableSmartMode
                0x03018050       0x9c icomapps.a(atcmd.o)
                0x03018050                At_EnableSmartMode
 .text.At_SAVE_CONFIG
                0x030180ec       0x20 icomapps.a(atcmd.o)
                0x030180ec                At_SAVE_CONFIG
 .text.At_EnableSmartReboot
                0x0301810c       0xb0 icomapps.a(atcmd.o)
                0x0301810c                At_EnableSmartReboot
 .text.At_Reboot
                0x030181bc       0x10 icomapps.a(atcmd.o)
                0x030181bc                At_Reboot
 .text.At_WatchDOG_Start
                0x030181cc       0x24 icomapps.a(atcmd.o)
                0x030181cc                At_WatchDOG_Start
 .text.At_WatchDOG_Stop
                0x030181f0       0x24 icomapps.a(atcmd.o)
                0x030181f0                At_WatchDOG_Stop
 .text.At_ProcessQueKill
                0x03018214       0x64 icomapps.a(atcmd.o)
                0x03018214                At_ProcessQueKill
 .text.At_ProcessKill
                0x03018278       0x64 icomapps.a(atcmd.o)
                0x03018278                At_ProcessKill
 .text.At_TCPDisconnect
                0x030182dc       0x34 icomapps.a(atcmd.o)
                0x030182dc                At_TCPDisconnect
 .text.At_UDPCreate
                0x03018310       0x60 icomapps.a(atcmd.o)
                0x03018310                At_UDPCreate
 .text.At_ShowNtpTime
                0x03018370       0x20 icomapps.a(atcmd.o)
                0x03018370                At_ShowNtpTime
 .text.At_ShowAllAP
                0x03018390      0x138 icomapps.a(atcmd.o)
                0x03018390                At_ShowAllAP
 .text.At_SetGpio
                0x030184c8       0x80 icomapps.a(atcmd.o)
                0x030184c8                At_SetGpio
 .text.At_WriteGpio
                0x03018548       0x54 icomapps.a(atcmd.o)
                0x03018548                At_WriteGpio
 .text.At_ReadGpio
                0x0301859c       0x54 icomapps.a(atcmd.o)
                0x0301859c                At_ReadGpio
 .text.At_SetPWMspecial
                0x030185f0       0x54 icomapps.a(atcmd.o)
                0x030185f0                At_SetPWMspecial
 .text.At_SetPWM
                0x03018644       0xec icomapps.a(atcmd.o)
                0x03018644                At_SetPWM
 .text.AT_SetDebugInfo
                0x03018730       0x7c icomapps.a(atcmd.o)
                0x03018730                AT_SetDebugInfo
 .text.At_TCPListen
                0x030187ac       0x50 icomapps.a(atcmd.o)
                0x030187ac                At_TCPListen
 .text.At_TCPChange_Timeout
                0x030187fc       0x70 icomapps.a(atcmd.o)
                0x030187fc                At_TCPChange_Timeout
 .text.At_TCPConnect
                0x0301886c       0xa8 icomapps.a(atcmd.o)
                0x0301886c                At_TCPConnect
 .text.At_TCPUnlisten
                0x03018914       0x68 icomapps.a(atcmd.o)
                0x03018914                At_TCPUnlisten
 .text.At_UDPSend
                0x0301897c       0xb0 icomapps.a(atcmd.o)
                0x0301897c                At_UDPSend
 .text.At_UDPClose
                0x03018a2c       0x48 icomapps.a(atcmd.o)
                0x03018a2c                At_UDPClose
 .text.At_NSLookup
                0x03018a74       0x5c icomapps.a(atcmd.o)
                0x03018a74                At_NSLookup
 .text.At_SET_AP_SSID
                0x03018ad0       0x34 icomapps.a(atcmd.o)
                0x03018ad0                At_SET_AP_SSID
 .text.At_SET_AUTO_CONNECT
                0x03018b04       0x58 icomapps.a(atcmd.o)
                0x03018b04                At_SET_AUTO_CONNECT
 .text.At_Clean_Lists
                0x03018b5c       0x10 icomapps.a(atcmd.o)
                0x03018b5c                At_Clean_Lists
 .text.At_AP    0x03018b6c       0x10 icomapps.a(atcmd.o)
                0x03018b6c                At_AP
 .text.At_DBG_LEASETIME
                0x03018b7c       0x20 icomapps.a(atcmd.o)
                0x03018b7c                At_DBG_LEASETIME
 .text.At_SET_APCONFIG
                0x03018b9c      0x1c0 icomapps.a(atcmd.o)
                0x03018b9c                At_SET_APCONFIG
 .text.At_GET_APCONFIG
                0x03018d5c       0x94 icomapps.a(atcmd.o)
                0x03018d5c                At_GET_APCONFIG
 .text.At_GET_APMODE
                0x03018df0       0x34 icomapps.a(atcmd.o)
                0x03018df0                At_GET_APMODE
 .text.At_AP_EXIT
                0x03018e24       0x10 icomapps.a(atcmd.o)
                0x03018e24                At_AP_EXIT
 .text.At_TestFlashErase
                0x03018e34       0xb4 icomapps.a(atcmd.o)
                0x03018e34                At_TestFlashErase
 .text.At_TestFlashWrite
                0x03018ee8       0x98 icomapps.a(atcmd.o)
                0x03018ee8                At_TestFlashWrite
 .text.At_BenchFlashWrite
                0x03018f80       0xf8 icomapps.a(atcmd.o)
                0x03018f80                At_BenchFlashWrite
 .text.At_TestCfsInfo
                0x03019078       0x44 icomapps.a(atcmd.o)
                0x03019078                At_TestCfsInfo
 .text.At_TestCfsLs
                0x030190bc       0x8c icomapps.a(atcmd.o)
                0x030190bc                At_TestCfsLs
 .text.At_TestCfsWrite
                0x03019148       0xdc icomapps.a(atcmd.o)
                0x03019148                At_TestCfsWrite
 .text.At_TestCfsRead
                0x03019224      0x130 icomapps.a(atcmd.o)
                0x03019224                At_TestCfsRead
 .text.At_TestCfsRemove
                0x03019354       0x3c icomapps.a(atcmd.o)
                0x03019354                At_TestCfsRemove
 .text.At_BenchFlashRead
                0x03019390       0xec icomapps.a(atcmd.o)
                0x03019390                At_BenchFlashRead
 .text.At_TestFlashRead
                0x0301947c       0x6c icomapps.a(atcmd.o)
                0x0301947c                At_TestFlashRead
 .text.At_RFCallback
                0x030194e8       0x24 icomapps.a(atcmd.o)
                0x030194e8                At_RFCallback
 .text.At_BackEcho
                0x0301950c       0x60 icomapps.a(atcmd.o)
                0x0301950c                At_BackEcho
 .text.At_OTASetServer
                0x0301956c       0x70 icomapps.a(atcmd.o)
                0x0301956c                At_OTASetServer
 .text.At_OTASetParam
                0x030195dc       0x34 icomapps.a(atcmd.o)
                0x030195dc                At_OTASetParam
 .text.At_OTAStart
                0x03019610       0x14 icomapps.a(atcmd.o)
                0x03019610                At_OTAStart
 .text.At_ShowConnectAP
                0x03019624      0x11c icomapps.a(atcmd.o)
                0x03019624                At_ShowConnectAP
 .text.allocate_buffer_in
                0x03019740       0x40 icomapps.a(atcmd.o)
                0x03019740                allocate_buffer_in
 .text.release_buffer_in
                0x03019780       0x30 icomapps.a(atcmd.o)
                0x03019780                release_buffer_in
 .text.allocate_buffer_out
                0x030197b0       0x40 icomapps.a(atcmd.o)
                0x030197b0                allocate_buffer_out
 .text.process_thread_http_request_process
                0x030197f0      0x370 icomapps.a(atcmd.o)
 .text.At_TCPSend
                0x03019b60       0xa0 icomapps.a(atcmd.o)
                0x03019b60                At_TCPSend
 .text.At_TCPSendCurr
                0x03019c00       0x50 icomapps.a(atcmd.o)
                0x03019c00                At_TCPSendCurr
 .text.At_HTTPTest
                0x03019c50      0x110 icomapps.a(atcmd.o)
                0x03019c50                At_HTTPTest
 .text.release_buffer_out
                0x03019d60       0x30 icomapps.a(atcmd.o)
                0x03019d60                release_buffer_out
 .text.parseBuff2Param
                0x03019d90       0xa8 icomapps.a(atcmd.o)
                0x03019d90                parseBuff2Param
 .text.showDataRate
                0x03019e38       0x1c icomapps.a(atcmd.o)
                0x03019e38                showDataRate
 .text.securityString
                0x03019e54       0x1c icomapps.a(atcmd.o)
                0x03019e54                securityString
 .text.securitySubString
                0x03019e70       0x1c icomapps.a(atcmd.o)
                0x03019e70                securitySubString
 .text.At_ParserRecv
                0x03019e8c       0x4c icomapps.a(atcmd.o)
                0x03019e8c                At_ParserRecv
 .text.At_RadioTest
                0x03019ed8       0x28 icomapps.a(atcmd.o)
                0x03019ed8                At_RadioTest
 .text.update_uart_config
                0x03019f00       0x1c icomapps.a(atcmd.o)
                0x03019f00                update_uart_config
 .text.At_ParserInd
                0x03019f1c       0xec icomapps.a(atcmd.o)
                0x03019f1c                At_ParserInd
 .text.At_Parser
                0x0301a008      0x230 icomapps.a(atcmd.o)
                0x0301a008                At_Parser
 .text          0x0301a238        0x0 icomapps.a(bsp_info.o)
 .text.bsp_get_boot_info
                0x0301a238       0xcc icomapps.a(bsp_info.o)
                0x0301a238                bsp_get_boot_info
 .text.get_boot_stack_fence
                0x0301a304       0x3c icomapps.a(bsp_info.o)
                0x0301a304                get_boot_stack_fence
 .text.bsp_get_mp_info
                0x0301a340      0x534 icomapps.a(bsp_info.o)
                0x0301a340                bsp_get_mp_info
 .text.bsp_get_define_info
                0x0301a874      0x148 icomapps.a(bsp_info.o)
                0x0301a874                bsp_get_define_info
 .text.bsp_get_config_info
                0x0301a9bc      0x374 icomapps.a(bsp_info.o)
                0x0301a9bc                bsp_get_config_info
 .text          0x0301ad30        0x0 icomapps.a(data_buff.o)
 .text.print_mem_pool
                0x0301ad30       0x38 icomapps.a(data_buff.o)
                0x0301ad30                print_mem_pool
 .text.print_mem_pool_array
                0x0301ad68       0x4c icomapps.a(data_buff.o)
                0x0301ad68                print_mem_pool_array
 .text.get_buff_from_mem_pool
                0x0301adb4       0x38 icomapps.a(data_buff.o)
                0x0301adb4                get_buff_from_mem_pool
 .text.reset_init_flag
                0x0301adec        0x4 icomapps.a(data_buff.o)
                0x0301adec                reset_init_flag
 .text.init_buff_queue
                0x0301adf0       0x44 icomapps.a(data_buff.o)
                0x0301adf0                init_buff_queue
 .text.init_one_mem_pool
                0x0301ae34       0xd8 icomapps.a(data_buff.o)
                0x0301ae34                init_one_mem_pool
 .text.init_mem_pool
                0x0301af0c      0x110 icomapps.a(data_buff.o)
                0x0301af0c                init_mem_pool
 .text.init_256_mem_pool
                0x0301b01c       0x54 icomapps.a(data_buff.o)
                0x0301b01c                init_256_mem_pool
 .text.init_2048_mem_pool
                0x0301b070       0x54 icomapps.a(data_buff.o)
                0x0301b070                init_2048_mem_pool
 .text.new_alloc_index_buffer
                0x0301b0c4        0xc icomapps.a(data_buff.o)
                0x0301b0c4                new_alloc_index_buffer
 .text.reset_buffer
                0x0301b0d0       0x70 icomapps.a(data_buff.o)
                0x0301b0d0                reset_buffer
 .text.copy_buf
                0x0301b140       0xb0 icomapps.a(data_buff.o)
                0x0301b140                copy_buf
 .text.append_buf2
                0x0301b1f0      0x118 icomapps.a(data_buff.o)
                0x0301b1f0                append_buf2
 .text.print_buffer
                0x0301b308       0xb8 icomapps.a(data_buff.o)
                0x0301b308                print_buffer
 .text.print_mem
                0x0301b3c0       0x34 icomapps.a(data_buff.o)
                0x0301b3c0                print_mem
 .text.get_buf_tail
                0x0301b3f4       0x30 icomapps.a(data_buff.o)
                0x0301b3f4                get_buf_tail
 .text.buf_get_total_len
                0x0301b424       0x64 icomapps.a(data_buff.o)
                0x0301b424                buf_get_total_len
 .text.buf_acc  0x0301b488       0x70 icomapps.a(data_buff.o)
                0x0301b488                buf_acc
 .text.free_queue_buff
                0x0301b4f8       0x24 icomapps.a(data_buff.o)
                0x0301b4f8                free_queue_buff
 .text.buf_decrease_to_len
                0x0301b51c       0xf8 icomapps.a(data_buff.o)
                0x0301b51c                buf_decrease_to_len
 .text.print_queue
                0x0301b614       0x68 icomapps.a(data_buff.o)
                0x0301b614                print_queue
 .text.data_buf_show_info
                0x0301b67c       0x98 icomapps.a(data_buff.o)
                0x0301b67c                data_buf_show_info
 .text          0x0301b714        0x0 icomapps.a(hx_sta_conn.o)
 .text.hx_init_conn_parameters
                0x0301b714       0x1c icomapps.a(hx_sta_conn.o)
                0x0301b714                hx_init_conn_parameters
 .text.hx_get_current_ssid
                0x0301b730        0xc icomapps.a(hx_sta_conn.o)
                0x0301b730                hx_get_current_ssid
 .text.hx_get_current_bssid
                0x0301b73c        0xc icomapps.a(hx_sta_conn.o)
                0x0301b73c                hx_get_current_bssid
 .text.hx_get_current_encrypt_mode
                0x0301b748        0x8 icomapps.a(hx_sta_conn.o)
                0x0301b748                hx_get_current_encrypt_mode
 .text.hx_get_current_key
                0x0301b750        0xc icomapps.a(hx_sta_conn.o)
                0x0301b750                hx_get_current_key
 .text.hx_set_current_ssid
                0x0301b75c       0x48 icomapps.a(hx_sta_conn.o)
                0x0301b75c                hx_set_current_ssid
 .text.hx_set_current_key
                0x0301b7a4       0x48 icomapps.a(hx_sta_conn.o)
                0x0301b7a4                hx_set_current_key
 .text.hx_set_encrypt_mode
                0x0301b7ec        0x8 icomapps.a(hx_sta_conn.o)
                0x0301b7ec                hx_set_encrypt_mode
 .text.hx_update_ap_info
                0x0301b7f4       0x88 icomapps.a(hx_sta_conn.o)
                0x0301b7f4                hx_update_ap_info
 .text.hx_setSSIDAndPass
                0x0301b87c       0x70 icomapps.a(hx_sta_conn.o)
                0x0301b87c                hx_setSSIDAndPass
 .text.process_thread_hx_sta_auto_conn_ap
                0x0301b8ec      0x2ac icomapps.a(hx_sta_conn.o)
 .text.hx_set_conn_status
                0x0301bb98        0x4 icomapps.a(hx_sta_conn.o)
                0x0301bb98                hx_set_conn_status
 .text.hm_start_conn_ap
                0x0301bb9c       0xa0 icomapps.a(hx_sta_conn.o)
                0x0301bb9c                hm_start_conn_ap
 .text.hm_start_conn_ap_by_scan
                0x0301bc3c       0xa8 icomapps.a(hx_sta_conn.o)
                0x0301bc3c                hm_start_conn_ap_by_scan
 .text.hx_get_wifi_connect_status
                0x0301bce4        0x8 icomapps.a(hx_sta_conn.o)
                0x0301bce4                hx_get_wifi_connect_status
 .text.hx_sta_get_running_status
                0x0301bcec       0x10 icomapps.a(hx_sta_conn.o)
                0x0301bcec                hx_sta_get_running_status
 .text.hx_get_blk_type
                0x0301bcfc        0x8 icomapps.a(hx_sta_conn.o)
                0x0301bcfc                hx_get_blk_type
 .text          0x0301bd04        0x0 icomapps.a(iperf_cmd.o)
 .text.AT_IPERF_CMD
                0x0301bd04        0x8 icomapps.a(iperf_cmd.o)
                0x0301bd04                AT_IPERF_CMD
 .text          0x0301bd0c        0x0 icomapps.a(key.o)
 .text.F_KEY_Init
                0x0301bd0c       0x2c icomapps.a(key.o)
                0x0301bd0c                F_KEY_Init
 .text.process_thread_F_Proc_KEY
                0x0301bd38      0x5b4 icomapps.a(key.o)
 .text.at_enter_smtlnk
                0x0301c2ec        0x4 icomapps.a(key.o)
                0x0301c2ec                at_enter_smtlnk
 .text.key_long_down_handle
                0x0301c2f0       0x4c icomapps.a(key.o)
                0x0301c2f0                key_long_down_handle
 .text          0x0301c33c        0x0 icomapps.a(MyATCmd.o)
 .text.F_ATCmd_Get_uVer
                0x0301c33c       0xe0 icomapps.a(MyATCmd.o)
                0x0301c33c                F_ATCmd_Get_uVer
 .text.F_ATCmd_Flash_R
                0x0301c41c       0x94 icomapps.a(MyATCmd.o)
                0x0301c41c                F_ATCmd_Flash_R
 .text.F_ATCmd_Flash_E
                0x0301c4b0       0x50 icomapps.a(MyATCmd.o)
                0x0301c4b0                F_ATCmd_Flash_E
 .text.F_ATCmd_Flash_W
                0x0301c500       0xa4 icomapps.a(MyATCmd.o)
                0x0301c500                F_ATCmd_Flash_W
 .text.F_ATCmd_DbgVal
                0x0301c5a4      0x33c icomapps.a(MyATCmd.o)
                0x0301c5a4                F_ATCmd_DbgVal
 .text.F_ATCmd_GetIMEI
                0x0301c8e0       0x5c icomapps.a(MyATCmd.o)
                0x0301c8e0                F_ATCmd_GetIMEI
 .text.F_ATCmd_IOTest
                0x0301c93c       0x38 icomapps.a(MyATCmd.o)
                0x0301c93c                F_ATCmd_IOTest
 .text.F_ATCmd_FMTest_SetOpt
                0x0301c974       0xac icomapps.a(MyATCmd.o)
                0x0301c974                F_ATCmd_FMTest_SetOpt
 .text.F_ATCmd_FMTest_ReadResult
                0x0301ca20       0xd8 icomapps.a(MyATCmd.o)
                0x0301ca20                F_ATCmd_FMTest_ReadResult
 .text.F_ATCmd_FMTest_Stop
                0x0301caf8       0x8c icomapps.a(MyATCmd.o)
                0x0301caf8                F_ATCmd_FMTest_Stop
 .text.F_ATCmd_FMTest_TCPSend
                0x0301cb84       0xa8 icomapps.a(MyATCmd.o)
                0x0301cb84                F_ATCmd_FMTest_TCPSend
 .text.F_ATCmd_PowerSave
                0x0301cc2c       0x54 icomapps.a(MyATCmd.o)
                0x0301cc2c                F_ATCmd_PowerSave
 .text.F_ATCmd_UARTSend
                0x0301cc80       0x8c icomapps.a(MyATCmd.o)
                0x0301cc80                F_ATCmd_UARTSend
 .text          0x0301cd0c        0x0 icomapps.a(MyThread.o)
 .text.process_thread_F_Proc_Delay
                0x0301cd0c       0x90 icomapps.a(MyThread.o)
 .text.F_IO_Init
                0x0301cd9c       0x84 icomapps.a(MyThread.o)
                0x0301cd9c                F_IO_Init
 .text.F_IO_OutPutTest
                0x0301ce20       0x5c icomapps.a(MyThread.o)
                0x0301ce20                F_IO_OutPutTest
 .text.process_thread_F_Proc_IOTest
                0x0301ce7c      0x174 icomapps.a(MyThread.o)
 .text.F_Version_Init
                0x0301cff0        0x4 icomapps.a(MyThread.o)
                0x0301cff0                F_Version_Init
 .text.F_IMEI_Init
                0x0301cff4       0x78 icomapps.a(MyThread.o)
                0x0301cff4                F_IMEI_Init
 .text.F_Print_EventList
                0x0301d06c        0x8 icomapps.a(MyThread.o)
                0x0301d06c                F_Print_EventList
 .text.F_FMTest_CheckSum
                0x0301d074       0x3c icomapps.a(MyThread.o)
                0x0301d074                F_FMTest_CheckSum
 .text.F_FMTest_Chk
                0x0301d0b0       0x78 icomapps.a(MyThread.o)
                0x0301d0b0                F_FMTest_Chk
 .text.F_FMTest_Init
                0x0301d128       0x50 icomapps.a(MyThread.o)
                0x0301d128                F_FMTest_Init
 .text.F_FMTest_SetOpt
                0x0301d178       0x64 icomapps.a(MyThread.o)
                0x0301d178                F_FMTest_SetOpt
 .text.F_FMTest_Read
                0x0301d1dc       0x18 icomapps.a(MyThread.o)
                0x0301d1dc                F_FMTest_Read
 .text.F_FMTest_Save
                0x0301d1f4       0x34 icomapps.a(MyThread.o)
                0x0301d1f4                F_FMTest_Save
 .text.F_FMTest_GetResult
                0x0301d228       0x10 icomapps.a(MyThread.o)
                0x0301d228                F_FMTest_GetResult
 .text.F_FMTest_SetResult
                0x0301d238       0x10 icomapps.a(MyThread.o)
                0x0301d238                F_FMTest_SetResult
 .text.F_SoftAP_SSID_Init
                0x0301d248       0x5c icomapps.a(MyThread.o)
                0x0301d248                F_SoftAP_SSID_Init
 .text.F_MPTbl_Init
                0x0301d2a4        0x4 icomapps.a(MyThread.o)
                0x0301d2a4                F_MPTbl_Init
 .text.F_CfgTbl_Init
                0x0301d2a8        0x4 icomapps.a(MyThread.o)
                0x0301d2a8                F_CfgTbl_Init
 .text.F_Module_IO_Indicator_Ready
                0x0301d2ac        0xc icomapps.a(MyThread.o)
                0x0301d2ac                F_Module_IO_Indicator_Ready
 .text.process_thread_F_Proc_MyInit_OK
                0x0301d2b8       0x4c icomapps.a(MyThread.o)
 .text.read_product_detect_pin
                0x0301d304       0x4c icomapps.a(MyThread.o)
                0x0301d304                read_product_detect_pin
 .text.process_thread_F_Proc_MyInit
                0x0301d350      0x1e8 icomapps.a(MyThread.o)
 .text.F_Module_IO_Indicator_nLink
                0x0301d538       0x74 icomapps.a(MyThread.o)
                0x0301d538                F_Module_IO_Indicator_nLink
 .text.process_thread_F_Proc_Module_IO_Indicator
                0x0301d5ac      0x2c4 icomapps.a(MyThread.o)
 .text.switch_flash_led_long_down
                0x0301d870       0xbc icomapps.a(MyThread.o)
                0x0301d870                switch_flash_led_long_down
 .text.F_KEY_IRQ
                0x0301d92c       0x30 icomapps.a(MyThread.o)
                0x0301d92c                F_KEY_IRQ
 .text          0x0301d95c        0x0 icomapps.a(ota_api.o)
 .text.process_thread_ota_nslookup_process
                0x0301d95c       0xe8 icomapps.a(ota_api.o)
 .text.free_ota_alloc_buf
                0x0301da44       0x30 icomapps.a(ota_api.o)
                0x0301da44                free_ota_alloc_buf
 .text.process_thread_auto_reboot_process
                0x0301da74      0x140 icomapps.a(ota_api.o)
 .text.cal_ota_checksum
                0x0301dbb4       0x54 icomapps.a(ota_api.o)
                0x0301dbb4                cal_ota_checksum
 .text.downloadFinish
                0x0301dc08      0x1c8 icomapps.a(ota_api.o)
                0x0301dc08                downloadFinish
 .text.filesave
                0x0301ddd0      0x15c icomapps.a(ota_api.o)
                0x0301ddd0                filesave
 .text.ota_abort
                0x0301df2c       0x34 icomapps.a(ota_api.o)
                0x0301df2c                ota_abort
 .text.ota_success
                0x0301df60       0x38 icomapps.a(ota_api.o)
                0x0301df60                ota_success
 .text.ota_download_file
                0x0301df98      0x118 icomapps.a(ota_api.o)
                0x0301df98                ota_download_file
 .text.ota_connected
                0x0301e0b0       0x2c icomapps.a(ota_api.o)
                0x0301e0b0                ota_connected
 .text.ota_init
                0x0301e0dc       0x20 icomapps.a(ota_api.o)
                0x0301e0dc                ota_init
 .text.casecmp  0x0301e0fc       0x58 icomapps.a(ota_api.o)
                0x0301e0fc                casecmp
 .text.parse_statusline
                0x0301e154      0x1c4 icomapps.a(ota_api.o)
                0x0301e154                parse_statusline
 .text.parse_headers
                0x0301e318      0x108 icomapps.a(ota_api.o)
                0x0301e318                parse_headers
 .text.parser_data
                0x0301e420       0x7c icomapps.a(ota_api.o)
                0x0301e420                parser_data
 .text.ota_disconnected
                0x0301e49c       0x68 icomapps.a(ota_api.o)
                0x0301e49c                ota_disconnected
 .text.ota_newdata
                0x0301e504       0xa0 icomapps.a(ota_api.o)
                0x0301e504                ota_newdata
 .text.process_thread_ota_connect_process
                0x0301e5a4      0x128 icomapps.a(ota_api.o)
 .text.process_thread_https_client_otaProcess
                0x0301e6cc      0x118 icomapps.a(ota_api.o)
 .text.ota_update
                0x0301e7e4      0x1c4 icomapps.a(ota_api.o)
                0x0301e7e4                ota_update
 .text.ota_set_server
                0x0301e9a8       0x6c icomapps.a(ota_api.o)
                0x0301e9a8                ota_set_server
 .text.ota_set_parameter
                0x0301ea14      0x148 icomapps.a(ota_api.o)
                0x0301ea14                ota_set_parameter
 .text.OtaTcpConnect
                0x0301eb5c       0x48 icomapps.a(ota_api.o)
                0x0301eb5c                OtaTcpConnect
 .text.process_thread_tcp_client_otaProcess
                0x0301eba4      0x2b4 icomapps.a(ota_api.o)
 .text.OtaTcpDisConnect
                0x0301ee58       0x34 icomapps.a(ota_api.o)
                0x0301ee58                OtaTcpDisConnect
 .text.setOtaRrmoteIp
                0x0301ee8c       0x24 icomapps.a(ota_api.o)
                0x0301ee8c                setOtaRrmoteIp
 .text.clearOtaParameters
                0x0301eeb0       0x28 icomapps.a(ota_api.o)
                0x0301eeb0                clearOtaParameters
 .text.process_thread_ota_updateProcess
                0x0301eed8      0x250 icomapps.a(ota_api.o)
 .text          0x0301f128        0x0 icomapps.a(socket_app.o)
 .text.process_thread_discover_process
                0x0301f128       0xa0 icomapps.a(socket_app.o)
 .text.otaProcessDisable
                0x0301f1c8       0x14 icomapps.a(socket_app.o)
                0x0301f1c8                otaProcessDisable
 .text.setRemoteMAC
                0x0301f1dc       0x48 icomapps.a(socket_app.o)
                0x0301f1dc                setRemoteMAC
 .text.setRrmoteIpAddress
                0x0301f224       0x1c icomapps.a(socket_app.o)
                0x0301f224                setRrmoteIpAddress
 .text.getCmdNum
                0x0301f240       0x88 icomapps.a(socket_app.o)
                0x0301f240                getCmdNum
 .text.smartTcpSend
                0x0301f2c8       0x50 icomapps.a(socket_app.o)
                0x0301f2c8                smartTcpSend
 .text.smartTcpConnect
                0x0301f318       0x74 icomapps.a(socket_app.o)
                0x0301f318                smartTcpConnect
 .text.smartTcpDisConnect
                0x0301f38c       0x38 icomapps.a(socket_app.o)
                0x0301f38c                smartTcpDisConnect
 .text.process_thread_tcp_client_smartProcess
                0x0301f3c4      0x1b4 icomapps.a(socket_app.o)
 .text.process_thread_tcp_smartlink_process
                0x0301f578      0x1f4 icomapps.a(socket_app.o)
 .text.appUdpCreate
                0x0301f76c       0x48 icomapps.a(socket_app.o)
                0x0301f76c                appUdpCreate
 .text.appUdpSend
                0x0301f7b4       0x40 icomapps.a(socket_app.o)
                0x0301f7b4                appUdpSend
 .text.appUdpClose
                0x0301f7f4       0x2c icomapps.a(socket_app.o)
                0x0301f7f4                appUdpClose
 .text.checkCmdAndSendData
                0x0301f820      0x13c icomapps.a(socket_app.o)
                0x0301f820                checkCmdAndSendData
 .text.process_thread_udp_server_discoverProcess
                0x0301f95c      0x168 icomapps.a(socket_app.o)
 .text          0x0301fac4        0x0 icomapps.a(soft_ap_init.o)
 .text.softap_combine_ssid_mac
                0x0301fac4       0x5c icomapps.a(soft_ap_init.o)
                0x0301fac4                softap_combine_ssid_mac
 .text.softap_dump_dhcp_setting
                0x0301fb20       0x98 icomapps.a(soft_ap_init.o)
                0x0301fb20                softap_dump_dhcp_setting
 .text.softap_dhcp_init
                0x0301fbb8      0x138 icomapps.a(soft_ap_init.o)
                0x0301fbb8                softap_dhcp_init
 .text.softap_init_ex
                0x0301fcf0       0xe0 icomapps.a(soft_ap_init.o)
                0x0301fcf0                softap_init_ex
 .text.softap_init_ex2
                0x0301fdd0       0x64 icomapps.a(soft_ap_init.o)
                0x0301fdd0                softap_init_ex2
 .text.softap_init
                0x0301fe34       0x8c icomapps.a(soft_ap_init.o)
                0x0301fe34                softap_init
 .text          0x0301fec0        0x0 icomapps.a(UAMisc.o)
 .text.F_btVal2Hex
                0x0301fec0       0x20 icomapps.a(UAMisc.o)
                0x0301fec0                F_btVal2Hex
 .text.F_btVal2Hex_LC
                0x0301fee0       0x20 icomapps.a(UAMisc.o)
                0x0301fee0                F_btVal2Hex_LC
 .text.F_Hex2btVal
                0x0301ff00       0x90 icomapps.a(UAMisc.o)
                0x0301ff00                F_Hex2btVal
 .text.F_PrintHex
                0x0301ff90       0xcc icomapps.a(UAMisc.o)
                0x0301ff90                F_PrintHex
 .text.F_GetLocalIP_V4
                0x0302005c       0x2c icomapps.a(UAMisc.o)
                0x0302005c                F_GetLocalIP_V4
 .text.F_IsLocalIP_V4
                0x03020088       0x20 icomapps.a(UAMisc.o)
                0x03020088                F_IsLocalIP_V4
 .text          0x030200a8        0x0 icomapps.a(UAVersion.o)
 .text          0x030200a8        0x0 icomapps.a(wifi_uart_demo.)
 .text.process_thread_wifiUartDemo_process
                0x030200a8      0x154 icomapps.a(wifi_uart_demo.)
 .text.process_thread_tcp_server_wifiUartProcess
                0x030201fc      0x35c icomapps.a(wifi_uart_demo.)
 .text.sampleAppTCPSend
                0x03020558       0xb4 icomapps.a(wifi_uart_demo.)
                0x03020558                sampleAppTCPSend
 .text.wifi2uart_tcp_send_cb
                0x0302060c       0x10 icomapps.a(wifi_uart_demo.)
                0x0302060c                wifi2uart_tcp_send_cb
 .text          0x0302061c        0x0 icomapps.a(xmem.o)
 .text.cabrio_flash_init
                0x0302061c        0x4 icomapps.a(xmem.o)
                0x0302061c                cabrio_flash_init
 .text.cabrio_flash_get_base_adddr
                0x03020620        0x4 icomapps.a(xmem.o)
                0x03020620                cabrio_flash_get_base_adddr
 .text.cabrio_flash_read
                0x03020624       0x2c icomapps.a(xmem.o)
                0x03020624                cabrio_flash_read
 .text.cabrio_flash_write_only
                0x03020650       0x40 icomapps.a(xmem.o)
                0x03020650                cabrio_flash_write_only
 .text.cabrio_flash_read_erase_write
                0x03020690       0x5c icomapps.a(xmem.o)
                0x03020690                cabrio_flash_read_erase_write
 .text.cabrio_flash_erase_marker_sector
                0x030206ec       0x2c icomapps.a(xmem.o)
                0x030206ec                cabrio_flash_erase_marker_sector
 .text.cabrio_flash_erase
                0x03020718       0x8c icomapps.a(xmem.o)
                0x03020718                cabrio_flash_erase
 .text          0x030207a4        0x0 icomapps.a(szcloud_intf.o)
 .text.tcp_disconnect_callback
                0x030207a4        0xc icomapps.a(szcloud_intf.o)
                0x030207a4                tcp_disconnect_callback
 .text.tcp_send_ack_callback
                0x030207b0        0xc icomapps.a(szcloud_intf.o)
                0x030207b0                tcp_send_ack_callback
 .text.mqtt_disconnect_callback
                0x030207bc        0xc icomapps.a(szcloud_intf.o)
                0x030207bc                mqtt_disconnect_callback
 .text.mqtt_send_ack_callback
                0x030207c8        0xc icomapps.a(szcloud_intf.o)
                0x030207c8                mqtt_send_ack_callback
 .text.tcp_recv_callback
                0x030207d4       0x5c icomapps.a(szcloud_intf.o)
                0x030207d4                tcp_recv_callback
 .text.mqtt_recv_callback
                0x03020830       0x5c icomapps.a(szcloud_intf.o)
                0x03020830                mqtt_recv_callback
 .text.Dt_EnableSmartReboot
                0x0302088c       0x80 icomapps.a(szcloud_intf.o)
                0x0302088c                Dt_EnableSmartReboot
 .text.type_init
                0x0302090c       0x3c icomapps.a(szcloud_intf.o)
                0x0302090c                type_init
 .text.wifi_version_init
                0x03020948       0x38 icomapps.a(szcloud_intf.o)
                0x03020948                wifi_version_init
 .text.server_ip_init
                0x03020980       0x80 icomapps.a(szcloud_intf.o)
                0x03020980                server_ip_init
 .text.get_mac_func
                0x03020a00       0x2c icomapps.a(szcloud_intf.o)
                0x03020a00                get_mac_func
 .text.process_thread_szcloud_process
                0x03020a2c      0x238 icomapps.a(szcloud_intf.o)
 .text.network_stat_update
                0x03020c64       0x68 icomapps.a(szcloud_intf.o)
                0x03020c64                network_stat_update
 .text          0x03020ccc        0x0 icomapps.a(szcloud_uart.o)
 .text.sz_h2b   0x03020ccc       0x3c icomapps.a(szcloud_uart.o)
 .text.sz_get_packet
                0x03020d08       0xa8 icomapps.a(szcloud_uart.o)
                0x03020d08                sz_get_packet
 .text.sz_init_switch_gpio
                0x03020db0       0x34 icomapps.a(szcloud_uart.o)
                0x03020db0                sz_init_switch_gpio
 .text.sz_key_switch_action
                0x03020de4       0x20 icomapps.a(szcloud_uart.o)
                0x03020de4                sz_key_switch_action
 .text.sz_do_with_uart_packet
                0x03020e04      0x110 icomapps.a(szcloud_uart.o)
                0x03020e04                sz_do_with_uart_packet
 .text.sz_uart_test
                0x03020f14       0x40 icomapps.a(szcloud_uart.o)
                0x03020f14                sz_uart_test
 .text          0x03020f54        0x0 icomapps.a(hx_flash_opt.o)
 .text.hx_is_sock_equal.part.0
                0x03020f54       0x64 icomapps.a(hx_flash_opt.o)
 .text.hx_get_uart_bdrate
                0x03020fb8       0x10 icomapps.a(hx_flash_opt.o)
                0x03020fb8                hx_get_uart_bdrate
 .text.hx_get_bdrate_string
                0x03020fc8       0x3c icomapps.a(hx_flash_opt.o)
                0x03020fc8                hx_get_bdrate_string
 .text.hx_update_conn_parameter
                0x03021004       0xb8 icomapps.a(hx_flash_opt.o)
                0x03021004                hx_update_conn_parameter
 .text.hx_update_gpio1_status
                0x030210bc       0x34 icomapps.a(hx_flash_opt.o)
                0x030210bc                hx_update_gpio1_status
 .text.hx_update_ap_mode
                0x030210f0       0x34 icomapps.a(hx_flash_opt.o)
                0x030210f0                hx_update_ap_mode
 .text.hx_update_uart_bdrate
                0x03021124       0x44 icomapps.a(hx_flash_opt.o)
                0x03021124                hx_update_uart_bdrate
 .text.hx_get_ssid
                0x03021168        0xc icomapps.a(hx_flash_opt.o)
                0x03021168                hx_get_ssid
 .text.hx_get_passwd
                0x03021174        0xc icomapps.a(hx_flash_opt.o)
                0x03021174                hx_get_passwd
 .text.hx_get_web_username
                0x03021180        0xc icomapps.a(hx_flash_opt.o)
                0x03021180                hx_get_web_username
 .text.hx_get_web_password
                0x0302118c        0xc icomapps.a(hx_flash_opt.o)
                0x0302118c                hx_get_web_password
 .text.hx_update_sockb_parameter
                0x03021198       0x44 icomapps.a(hx_flash_opt.o)
                0x03021198                hx_update_sockb_parameter
 .text.hx_update_echo_flag
                0x030211dc       0x34 icomapps.a(hx_flash_opt.o)
                0x030211dc                hx_update_echo_flag
 .text.hx_update_smtlnk_flag
                0x03021210       0x34 icomapps.a(hx_flash_opt.o)
                0x03021210                hx_update_smtlnk_flag
 .text.hx_get_smtlnk_flag
                0x03021244       0x10 icomapps.a(hx_flash_opt.o)
                0x03021244                hx_get_smtlnk_flag
 .text.hx_update_parameter
                0x03021254      0x180 icomapps.a(hx_flash_opt.o)
                0x03021254                hx_update_parameter
 .text.hx_read_conf
                0x030213d4      0x108 icomapps.a(hx_flash_opt.o)
                0x030213d4                hx_read_conf
 .text.hx_init_sockb_parameter
                0x030214dc       0x30 icomapps.a(hx_flash_opt.o)
                0x030214dc                hx_init_sockb_parameter
 .text.hx_init_echo_flag
                0x0302150c       0x28 icomapps.a(hx_flash_opt.o)
                0x0302150c                hx_init_echo_flag
 .text.hx_init_smtlnk_flag
                0x03021534       0x28 icomapps.a(hx_flash_opt.o)
                0x03021534                hx_init_smtlnk_flag
 .text.hx_init_conn_parameter
                0x0302155c       0xdc icomapps.a(hx_flash_opt.o)
                0x0302155c                hx_init_conn_parameter
 .text.hx_write_conf
                0x03021638       0x98 icomapps.a(hx_flash_opt.o)
                0x03021638                hx_write_conf
 .text.hx_init_parameter
                0x030216d0      0x1fc icomapps.a(hx_flash_opt.o)
                0x030216d0                hx_init_parameter
 .text.hx_init_parameter_2
                0x030218cc       0xa4 icomapps.a(hx_flash_opt.o)
                0x030218cc                hx_init_parameter_2
 .text.hx_init_web_sec_info
                0x03021970       0x5c icomapps.a(hx_flash_opt.o)
                0x03021970                hx_init_web_sec_info
 .text.hx_get_ap_conf
                0x030219cc       0x90 icomapps.a(hx_flash_opt.o)
                0x030219cc                hx_get_ap_conf
 .text.hx_update_ap_conf
                0x03021a5c       0x9c icomapps.a(hx_flash_opt.o)
                0x03021a5c                hx_update_ap_conf
 .text.hx_update_web_username
                0x03021af8       0xac icomapps.a(hx_flash_opt.o)
                0x03021af8                hx_update_web_username
 .text.tuya_read_conf_help
                0x03021ba4       0x50 icomapps.a(hx_flash_opt.o)
                0x03021ba4                tuya_read_conf_help
 .text.tuya_save_conf_help
                0x03021bf4       0x9c icomapps.a(hx_flash_opt.o)
                0x03021bf4                tuya_save_conf_help
 .text.conf_read_help
                0x03021c90       0xa0 icomapps.a(hx_flash_opt.o)
                0x03021c90                conf_read_help
 .text.conf_save_help
                0x03021d30       0xe8 icomapps.a(hx_flash_opt.o)
                0x03021d30                conf_save_help
 .text          0x03021e18        0x0 icomapps.a(MyCustSave.o)
 .text.F_CustArea_Save
                0x03021e18       0xc0 icomapps.a(MyCustSave.o)
                0x03021e18                F_CustArea_Save
 .text.F_CustArea_Load
                0x03021ed8       0x9c icomapps.a(MyCustSave.o)
                0x03021ed8                F_CustArea_Load
 .text.F_CustArea_Erea
                0x03021f74       0x74 icomapps.a(MyCustSave.o)
                0x03021f74                F_CustArea_Erea
 .text          0x03021fe8        0x0 icomapps.a(net.o)
 .text.net_get_hekr_sock
                0x03021fe8        0x8 icomapps.a(net.o)
                0x03021fe8                net_get_hekr_sock
 .text.net_get_tcp_close_reason
                0x03021ff0       0x10 icomapps.a(net.o)
                0x03021ff0                net_get_tcp_close_reason
 .text.net_set_tcp_close_reason
                0x03022000       0x10 icomapps.a(net.o)
                0x03022000                net_set_tcp_close_reason
 .text.add_ip_to_table
                0x03022010       0xc8 icomapps.a(net.o)
                0x03022010                add_ip_to_table
 .text.process_thread_hekr_nslookup_process
                0x030220d8      0x124 icomapps.a(net.o)
 .text.get_ip_from_cache
                0x030221fc       0xc4 icomapps.a(net.o)
                0x030221fc                get_ip_from_cache
 .text.init_net_buff
                0x030222c0       0x38 icomapps.a(net.o)
                0x030222c0                init_net_buff
 .text.net_send_all_lines_packet
                0x030222f8       0x48 icomapps.a(net.o)
                0x030222f8                net_send_all_lines_packet
 .text.net_close_all_lines
                0x03022340       0x40 icomapps.a(net.o)
                0x03022340                net_close_all_lines
 .text.net_resend_all_lines_packet
                0x03022380       0x34 icomapps.a(net.o)
                0x03022380                net_resend_all_lines_packet
 .text.tcp_send_ok_callback
                0x030223b4       0x74 icomapps.a(net.o)
                0x030223b4                tcp_send_ok_callback
 .text.net_has_active_conn
                0x03022428       0x18 icomapps.a(net.o)
                0x03022428                net_has_active_conn
 .text.unregister_net_line
                0x03022440       0x74 icomapps.a(net.o)
                0x03022440                unregister_net_line
 .text.unregister_net_line_all
                0x030224b4       0x40 icomapps.a(net.o)
                0x030224b4                unregister_net_line_all
 .text.net_line_handle_rcv_pkt
                0x030224f4       0x1c icomapps.a(net.o)
                0x030224f4                net_line_handle_rcv_pkt
 .text.net_line_rx_que_using
                0x03022510       0x18 icomapps.a(net.o)
                0x03022510                net_line_rx_que_using
 .text.net_tcp_send_cb
                0x03022528       0x40 icomapps.a(net.o)
                0x03022528                net_tcp_send_cb
 .text.net_tcp_recv_data_to_queue
                0x03022568      0x14c icomapps.a(net.o)
                0x03022568                net_tcp_recv_data_to_queue
 .text.hekr_close_sock
                0x030226b4        0x4 icomapps.a(net.o)
                0x030226b4                hekr_close_sock
 .text.soc_ip_check
                0x030226b8      0x104 icomapps.a(net.o)
                0x030226b8                soc_ip_check
 .text.hx_get_client_peer_address
                0x030227bc       0x24 icomapps.a(net.o)
                0x030227bc                hx_get_client_peer_address
 .text          0x030227e0        0x0 icomapps.a(uart.o)
 .text.hx_init_parameters
                0x030227e0       0x8c icomapps.a(uart.o)
                0x030227e0                hx_init_parameters
 .text.init_uart_buff
                0x0302286c       0x48 icomapps.a(uart.o)
                0x0302286c                init_uart_buff
 .text.uart_send_buf
                0x030228b4       0x7c icomapps.a(uart.o)
                0x030228b4                uart_send_buf
 .text.send_uart
                0x03022930       0x4c icomapps.a(uart.o)
                0x03022930                send_uart
 .text.uart_send_callback
                0x0302297c       0x68 icomapps.a(uart.o)
                0x0302297c                uart_send_callback
 .text.init_data_uart_port
                0x030229e4       0x6c icomapps.a(uart.o)
                0x030229e4                init_data_uart_port
 .text.deinit_data_uart_port
                0x03022a50       0x28 icomapps.a(uart.o)
                0x03022a50                deinit_data_uart_port
 .text          0x03022a78        0x0 contikilib.a(mqtt.o)
 .text.encode_remaining_length
                0x03022a78       0x40 contikilib.a(mqtt.o)
 .text.call_event
                0x03022ab8       0x28 contikilib.a(mqtt.o)
 .text.reset_packet
                0x03022ae0       0x20 contikilib.a(mqtt.o)
 .text.handle_publish
                0x03022b00       0x64 contikilib.a(mqtt.o)
 .text.send_out_buffer
                0x03022b64       0x68 contikilib.a(mqtt.o)
 .text.write_byte
                0x03022bcc       0x38 contikilib.a(mqtt.o)
 .text.write_bytes
                0x03022c04       0x7c contikilib.a(mqtt.o)
 .text.abort_connection
                0x03022c80       0x90 contikilib.a(mqtt.o)
 .text.string_to_mqtt_string
                0x03022d10       0x38 contikilib.a(mqtt.o)
 .text.keep_alive_callback
                0x03022d48       0x74 contikilib.a(mqtt.o)
 .text.tcp_event
                0x03022dbc       0xd8 contikilib.a(mqtt.o)
 .text.process_thread_sslmqttproc
                0x03022e94      0x13c contikilib.a(mqtt.o)
 .text.mqtt_init
                0x03022fd0       0xf8 contikilib.a(mqtt.o)
                0x03022fd0                mqtt_init
 .text.mqtt_register
                0x030230c8       0xb4 contikilib.a(mqtt.o)
                0x030230c8                mqtt_register
 .text.mqtt_connect
                0x0302317c       0xe4 contikilib.a(mqtt.o)
                0x0302317c                mqtt_connect
 .text.mqtt_disconnect
                0x03023260       0x30 contikilib.a(mqtt.o)
                0x03023260                mqtt_disconnect
 .text.process_thread_mqtt_process
                0x03023290     0x1bf4 contikilib.a(mqtt.o)
 .text.mqtt_subscribe
                0x03024e84       0xcc contikilib.a(mqtt.o)
                0x03024e84                mqtt_subscribe
 .text.mqtt_unsubscribe
                0x03024f50       0xc4 contikilib.a(mqtt.o)
                0x03024f50                mqtt_unsubscribe
 .text.mqtt_publish
                0x03025014       0xcc contikilib.a(mqtt.o)
                0x03025014                mqtt_publish
 .text.mqtt_set_username_password
                0x030250e0       0x54 contikilib.a(mqtt.o)
                0x030250e0                mqtt_set_username_password
 .text.mqtt_set_last_will
                0x03025134       0x40 contikilib.a(mqtt.o)
                0x03025134                mqtt_set_last_will
 .text.mqtt_enable_ssl
                0x03025174       0x1c contikilib.a(mqtt.o)
                0x03025174                mqtt_enable_ssl
 .text          0x03025190        0x0 contikilib.a(ntp_client.o)
 .text.process_thread_ntp_client_Process
                0x03025190      0x30c contikilib.a(ntp_client.o)
 .text.process_thread_ntp_nslookup_process
                0x0302549c       0xc8 contikilib.a(ntp_client.o)
 .text.showReceNtpMsg
                0x03025564      0x21c contikilib.a(ntp_client.o)
                0x03025564                showReceNtpMsg
 .text.ntp_get_time_offset
                0x03025780       0x20 contikilib.a(ntp_client.o)
                0x03025780                ntp_get_time_offset
 .text.__secs_to_tm
                0x030257a0      0x264 contikilib.a(ntp_client.o)
                0x030257a0                __secs_to_tm
 .text.process_thread_ntp_connectPprocess
                0x03025a04      0x20c contikilib.a(ntp_client.o)
 .text.start_sync_time_process
                0x03025c10       0x30 contikilib.a(ntp_client.o)
                0x03025c10                start_sync_time_process
 .text.dtimer_callback
                0x03025c40       0xfc contikilib.a(ntp_client.o)
 .text          0x03025d3c        0x0 contikilib.a(cfs-coffee.o)
 .text.load_file
                0x03025d3c       0xa8 contikilib.a(cfs-coffee.o)
 .text.read_header
                0x03025de4       0x18 contikilib.a(cfs-coffee.o)
 .text.file_end
                0x03025dfc       0x94 contikilib.a(cfs-coffee.o)
 .text.write_header
                0x03025e90       0x24 contikilib.a(cfs-coffee.o)
 .text.next_file.isra.0
                0x03025eb4       0x2c contikilib.a(cfs-coffee.o)
 .text.find_file
                0x03025ee0       0xec contikilib.a(cfs-coffee.o)
 .text.find_contiguous_pages
                0x03025fcc       0xe4 contikilib.a(cfs-coffee.o)
 .text.remove_by_page.isra.1
                0x030260b0      0x118 contikilib.a(cfs-coffee.o)
 .text.reserve.constprop.3
                0x030261c8      0x354 contikilib.a(cfs-coffee.o)
 .text.cfs_dump_info
                0x0302651c       0xa0 contikilib.a(cfs-coffee.o)
                0x0302651c                cfs_dump_info
 .text.dump_file_desc
                0x030265bc       0x38 contikilib.a(cfs-coffee.o)
                0x030265bc                dump_file_desc
 .text.dump_file
                0x030265f4       0xac contikilib.a(cfs-coffee.o)
                0x030265f4                dump_file
 .text.dump_hdr
                0x030266a0      0x168 contikilib.a(cfs-coffee.o)
                0x030266a0                dump_hdr
 .text.icomm_cfs_dump_file_info
                0x03026808       0xc8 contikilib.a(cfs-coffee.o)
                0x03026808                icomm_cfs_dump_file_info
 .text.cfs_open
                0x030268d0       0xf0 contikilib.a(cfs-coffee.o)
                0x030268d0                cfs_open
 .text.cfs_close
                0x030269c0       0x44 contikilib.a(cfs-coffee.o)
                0x030269c0                cfs_close
 .text.cfs_seek
                0x03026a04       0x94 contikilib.a(cfs-coffee.o)
                0x03026a04                cfs_seek
 .text.cfs_remove
                0x03026a98       0x34 contikilib.a(cfs-coffee.o)
                0x03026a98                cfs_remove
 .text.cfs_read
                0x03026acc       0x9c contikilib.a(cfs-coffee.o)
                0x03026acc                cfs_read
 .text.cfs_write
                0x03026b68      0x298 contikilib.a(cfs-coffee.o)
                0x03026b68                cfs_write
 .text.cfs_opendir
                0x03026e00       0x18 contikilib.a(cfs-coffee.o)
                0x03026e00                cfs_opendir
 .text.cfs_readdir
                0x03026e18       0xe4 contikilib.a(cfs-coffee.o)
                0x03026e18                cfs_readdir
 .text.cfs_closedir
                0x03026efc        0x4 contikilib.a(cfs-coffee.o)
                0x03026efc                cfs_closedir
 .text.cfs_coffee_reserve
                0x03026f00       0x2c contikilib.a(cfs-coffee.o)
                0x03026f00                cfs_coffee_reserve
 .text.cfs_coffee_configure_log
                0x03026f2c       0x9c contikilib.a(cfs-coffee.o)
                0x03026f2c                cfs_coffee_configure_log
 .text.get_cabrio_fs_table_marker
                0x03026fc8       0x40 contikilib.a(cfs-coffee.o)
                0x03026fc8                get_cabrio_fs_table_marker
 .text.cfs_dbg_flash_dump_data
                0x03027008        0x4 contikilib.a(cfs-coffee.o)
                0x03027008                cfs_dbg_flash_dump_data
 .text.set_cabrio_fs_table_marker
                0x0302700c       0x14 contikilib.a(cfs-coffee.o)
                0x0302700c                set_cabrio_fs_table_marker
 .text.cfs_coffee_format
                0x03027020       0x54 contikilib.a(cfs-coffee.o)
                0x03027020                cfs_coffee_format
 .text.cfs_coffee_get_protected_mem
                0x03027074       0x14 contikilib.a(cfs-coffee.o)
                0x03027074                cfs_coffee_get_protected_mem
 .text          0x03027088        0x0 contikilib.a(dhcp_process.o)
 .text.process_thread_dhcp_process
                0x03027088      0x150 contikilib.a(dhcp_process.o)
 .text.replyAck
                0x030271d8       0x10 contikilib.a(dhcp_process.o)
                0x030271d8                replyAck
 .text.set_node_ip
                0x030271e8       0x90 contikilib.a(dhcp_process.o)
                0x030271e8                set_node_ip
 .text.ip_configure
                0x03027278       0x10 contikilib.a(dhcp_process.o)
                0x03027278                ip_configure
 .text.dhcp_configure
                0x03027288       0xd0 contikilib.a(dhcp_process.o)
                0x03027288                dhcp_configure
 .text          0x03027358        0x0 contikilib.a(dhcps.o)
 .text.unlikely.find_option
                0x03027358       0x60 contikilib.a(dhcps.o)
 .text.unlikely.lookup_lease_ip
                0x030273b8      0x170 contikilib.a(dhcps.o)
 .text.unlikely.create_msg
                0x03027528       0x9c contikilib.a(dhcps.o)
 .text.unlikely.add_lease_time
                0x030275c4       0x68 contikilib.a(dhcps.o)
 .text.unlikely.add_config
                0x0302762c       0xa8 contikilib.a(dhcps.o)
 .text.get_leased_mac
                0x030276d4      0x248 contikilib.a(dhcps.o)
 .text.unlikely.send_nack
                0x0302791c       0xc4 contikilib.a(dhcps.o)
 .text.dhcp_dump_info
                0x030279e0      0x128 contikilib.a(dhcps.o)
                0x030279e0                dhcp_dump_info
 .text.init_lease
                0x03027b08       0x20 contikilib.a(dhcps.o)
                0x03027b08                init_lease
 .text.process_thread_dhcp_server_process
                0x03027b28      0x9a8 contikilib.a(dhcps.o)
 .text.release_address_by_mac
                0x030284d0       0xcc contikilib.a(dhcps.o)
                0x030284d0                release_address_by_mac
 .text.dhcps_init
                0x0302859c       0x7c contikilib.a(dhcps.o)
                0x0302859c                dhcps_init
 .text.dhcps_exit
                0x03028618        0xc contikilib.a(dhcps.o)
                0x03028618                dhcps_exit
 .text          0x03028624        0x0 contikilib.a(list.o)
 .text.list_init
                0x03028624        0xc contikilib.a(list.o)
                0x03028624                list_init
 .text.list_head
                0x03028630        0x8 contikilib.a(list.o)
                0x03028630                list_head
 .text.list_copy
                0x03028638        0xc contikilib.a(list.o)
                0x03028638                list_copy
 .text.list_tail
                0x03028644       0x20 contikilib.a(list.o)
                0x03028644                list_tail
 .text.list_chop
                0x03028664       0x44 contikilib.a(list.o)
                0x03028664                list_chop
 .text.list_pop
                0x030286a8       0x18 contikilib.a(list.o)
                0x030286a8                list_pop
 .text.list_remove
                0x030286c0       0x4c contikilib.a(list.o)
                0x030286c0                list_remove
 .text.list_add
                0x0302870c       0x30 contikilib.a(list.o)
                0x0302870c                list_add
 .text.list_push
                0x0302873c       0x20 contikilib.a(list.o)
                0x0302873c                list_push
 .text.list_length
                0x0302875c       0x1c contikilib.a(list.o)
                0x0302875c                list_length
 .text.list_insert
                0x03028778       0x1c contikilib.a(list.o)
                0x03028778                list_insert
 .text.list_item_next
                0x03028794        0xc contikilib.a(list.o)
                0x03028794                list_item_next
 .text          0x030287a0        0x0 contikilib.a(resolv.o)
 .text.skip_name
                0x030287a0       0x2c contikilib.a(resolv.o)
 .text.resolv_found.isra.0
                0x030287cc       0x18 contikilib.a(resolv.o)
 .text.process_thread_resolv_process
                0x030287e4      0x548 contikilib.a(resolv.o)
 .text.resolv_query
                0x03028d2c      0x150 contikilib.a(resolv.o)
                0x03028d2c                resolv_query
 .text.resolv_lookup
                0x03028e7c       0xdc contikilib.a(resolv.o)
                0x03028e7c                resolv_lookup
 .text.resolv_getserver
                0x03028f58        0xc contikilib.a(resolv.o)
                0x03028f58                resolv_getserver
 .text.resolv_conf
                0x03028f64       0x1c contikilib.a(resolv.o)
                0x03028f64                resolv_conf
 .text          0x03028f80        0x0 contikilib.a(simple-udp.o)
 .text.process_thread_simple_udp_process
                0x03028f80      0x14c contikilib.a(simple-udp.o)
 .text.simple_udp_send
                0x030290cc       0x48 contikilib.a(simple-udp.o)
                0x030290cc                simple_udp_send
 .text.simple_udp_sendto
                0x03029114       0x44 contikilib.a(simple-udp.o)
                0x03029114                simple_udp_sendto
 .text.simple_udp_sendto_port
                0x03029158       0x40 contikilib.a(simple-udp.o)
                0x03029158                simple_udp_sendto_port
 .text.simple_udp_register
                0x03029198       0xcc contikilib.a(simple-udp.o)
                0x03029198                simple_udp_register
 .text          0x03029264        0x0 contikilib.a(tcp-socket.o)
 .text.call_event
                0x03029264       0x2c contikilib.a(tcp-socket.o)
 .text.relisten
                0x03029290       0x24 contikilib.a(tcp-socket.o)
 .text.newdata  0x030292b4       0x9c contikilib.a(tcp-socket.o)
 .text.senddata
                0x03029350       0x58 contikilib.a(tcp-socket.o)
 .text.process_thread_tcp_socket_process
                0x030293a8      0x380 contikilib.a(tcp-socket.o)
 .text.tcp_socket_register
                0x03029728       0xc4 contikilib.a(tcp-socket.o)
                0x03029728                tcp_socket_register
 .text.tcp_socket_connect
                0x030297ec       0x74 contikilib.a(tcp-socket.o)
                0x030297ec                tcp_socket_connect
 .text.tcp_socket_listen
                0x03029860       0x5c contikilib.a(tcp-socket.o)
                0x03029860                tcp_socket_listen
 .text.tcp_socket_unlisten
                0x030298bc       0x64 contikilib.a(tcp-socket.o)
                0x030298bc                tcp_socket_unlisten
 .text.tcp_socket_send
                0x03029920       0x8c contikilib.a(tcp-socket.o)
                0x03029920                tcp_socket_send
 .text.tcp_socket_send_str
                0x030299ac       0x28 contikilib.a(tcp-socket.o)
                0x030299ac                tcp_socket_send_str
 .text.tcp_socket_close
                0x030299d4       0x1c contikilib.a(tcp-socket.o)
                0x030299d4                tcp_socket_close
 .text.tcp_socket_unregister
                0x030299f0       0x40 contikilib.a(tcp-socket.o)
                0x030299f0                tcp_socket_unregister
 .text.tcp_socket_max_sendlen
                0x03029a30       0x20 contikilib.a(tcp-socket.o)
                0x03029a30                tcp_socket_max_sendlen
 .text          0x03029a50        0x0 contikilib.a(uip_arp.o)
 .text.send_arp_request
                0x03029a50       0xf0 contikilib.a(uip_arp.o)
 .text.process_thread_get_gatewaymac_process
                0x03029b40       0xcc contikilib.a(uip_arp.o)
 .text.uip_arp_print
                0x03029c0c       0x80 contikilib.a(uip_arp.o)
                0x03029c0c                uip_arp_print
 .text.uip_arp_delete
                0x03029c8c       0xac contikilib.a(uip_arp.o)
                0x03029c8c                uip_arp_delete
 .text.uip_arp_init
                0x03029d38       0x84 contikilib.a(uip_arp.o)
                0x03029d38                uip_arp_init
 .text.uip_arp_timer
                0x03029dbc       0x84 contikilib.a(uip_arp.o)
                0x03029dbc                uip_arp_timer
 .text.process_thread_arptable_polling_process
                0x03029e40       0x94 contikilib.a(uip_arp.o)
 .text.uip_arp_update
                0x03029ed4      0x204 contikilib.a(uip_arp.o)
                0x03029ed4                uip_arp_update
 .text.uip_arp_softap_init
                0x0302a0d8       0x40 contikilib.a(uip_arp.o)
                0x0302a0d8                uip_arp_softap_init
 .text.check_ip_in_arptable
                0x0302a118       0x4c contikilib.a(uip_arp.o)
                0x0302a118                check_ip_in_arptable
 .text.send_needip_arp_request
                0x0302a164       0x10 contikilib.a(uip_arp.o)
                0x0302a164                send_needip_arp_request
 .text.uip_arp_ready
                0x0302a174       0xc8 contikilib.a(uip_arp.o)
                0x0302a174                uip_arp_ready
 .text          0x0302a23c        0x0 contikilib.a(uiplib.o)
 .text.uiplib_ip4addrconv
                0x0302a23c       0xa4 contikilib.a(uiplib.o)
                0x0302a23c                uiplib_ip4addrconv
 .text          0x0302a2e0        0x0 contikilib.a(uip-udp-packet.)
 .text          0x0302a2e0        0x0 contikilib.a(dhcpc.o)
 .text.create_msg
                0x0302a2e0      0x100 contikilib.a(dhcpc.o)
 .text.msg_for_me
                0x0302a3e0       0xb0 contikilib.a(dhcpc.o)
 .text.parse_msg
                0x0302a490      0x134 contikilib.a(dhcpc.o)
 .text.send_discover
                0x0302a5c4       0x80 contikilib.a(dhcpc.o)
 .text.send_request
                0x0302a644       0xa8 contikilib.a(dhcpc.o)
 .text.getDhcpState
                0x0302a6ec       0x10 contikilib.a(dhcpc.o)
                0x0302a6ec                getDhcpState
 .text.dhcpc_configured
                0x0302a6fc      0x154 contikilib.a(dhcpc.o)
                0x0302a6fc                dhcpc_configured
 .text.handle_dhcp.isra.0
                0x0302a850      0x758 contikilib.a(dhcpc.o)
 .text.dhcpc_unconfigured
                0x0302afa8        0xc contikilib.a(dhcpc.o)
                0x0302afa8                dhcpc_unconfigured
 .text.dhcpc_init
                0x0302afb4       0xac contikilib.a(dhcpc.o)
                0x0302afb4                dhcpc_init
 .text.dhcpc_appcall
                0x0302b060       0x18 contikilib.a(dhcpc.o)
                0x0302b060                dhcpc_appcall
 .text.dhcpc_request
                0x0302b078       0xd0 contikilib.a(dhcpc.o)
                0x0302b078                dhcpc_request
 .text          0x0302b148        0x0 icomlib.a(ctimer.o)
 .text.process_thread_ctimer_process
                0x0302b148      0x118 icomlib.a(ctimer.o)
 .text.ctimer_init
                0x0302b260       0x34 icomlib.a(ctimer.o)
                0x0302b260                ctimer_init
 .text.ctimer_set
                0x0302b294       0x7c icomlib.a(ctimer.o)
                0x0302b294                ctimer_set
 .text.ctimer_reset
                0x0302b310       0x54 icomlib.a(ctimer.o)
                0x0302b310                ctimer_reset
 .text.ctimer_restart
                0x0302b364       0x54 icomlib.a(ctimer.o)
                0x0302b364                ctimer_restart
 .text.ctimer_stop
                0x0302b3b8       0x3c icomlib.a(ctimer.o)
                0x0302b3b8                ctimer_stop
 .text.ctimer_expired
                0x0302b3f4       0x58 icomlib.a(ctimer.o)
                0x0302b3f4                ctimer_expired
 .text          0x0302b44c        0x0 icomlib.a(pwm_api.o)
 .text.enableHwPWM
                0x0302b44c       0x30 icomlib.a(pwm_api.o)
                0x0302b44c                enableHwPWM
 .text.disableHwPWM
                0x0302b47c       0x10 icomlib.a(pwm_api.o)
                0x0302b47c                disableHwPWM
 .text.enableHwPWMspecial
                0x0302b48c       0x20 icomlib.a(pwm_api.o)
                0x0302b48c                enableHwPWMspecial
 .text          0x0302b4ac        0x0 icomlib.a(serial_api.o)
 .text.SerialInit
                0x0302b4ac       0x48 icomlib.a(serial_api.o)
                0x0302b4ac                SerialInit
 .text.SerialConfig
                0x0302b4f4        0xc icomlib.a(serial_api.o)
                0x0302b4f4                SerialConfig
 .text.SerialDeinit
                0x0302b500       0x38 icomlib.a(serial_api.o)
                0x0302b500                SerialDeinit
 .text          0x0302b538        0x0 icomlib.a(ssl_api.o)
 .text.getSSLRECORD
                0x0302b538       0x44 icomlib.a(ssl_api.o)
 .text.SSL_send
                0x0302b57c       0x40 icomlib.a(ssl_api.o)
 .text.extensionCb
                0x0302b5bc       0x50 icomlib.a(ssl_api.o)
 .text.certCb   0x0302b60c       0xc0 icomlib.a(ssl_api.o)
 .text.SSL_PrintHSDetails
                0x0302b6cc       0xd4 icomlib.a(ssl_api.o)
                0x0302b6cc                SSL_PrintHSDetails
 .text.SSL_init
                0x0302b7a0       0x58 icomlib.a(ssl_api.o)
                0x0302b7a0                SSL_init
 .text.SSL_loadkeysbybuf
                0x0302b7f8       0x64 icomlib.a(ssl_api.o)
                0x0302b7f8                SSL_loadkeysbybuf
 .text.SSL_loadkeys
                0x0302b85c       0x4c icomlib.a(ssl_api.o)
                0x0302b85c                SSL_loadkeys
 .text.SSL_freekeys
                0x0302b8a8       0x10 icomlib.a(ssl_api.o)
                0x0302b8a8                SSL_freekeys
 .text.SSL_write
                0x0302b8b8       0x90 icomlib.a(ssl_api.o)
                0x0302b8b8                SSL_write
 .text.SSL_Handle_writeAck
                0x0302b948        0x8 icomlib.a(ssl_api.o)
                0x0302b948                SSL_Handle_writeAck
 .text.SSL_read
                0x0302b950       0x70 icomlib.a(ssl_api.o)
                0x0302b950                SSL_read
 .text.SSL_disconnect
                0x0302b9c0       0x6c icomlib.a(ssl_api.o)
                0x0302b9c0                SSL_disconnect
 .text.SSL_rspdisconnect
                0x0302ba2c       0x34 icomlib.a(ssl_api.o)
 .text.process_thread_sslhandlerprocess
                0x0302ba60      0x268 icomlib.a(ssl_api.o)
 .text.SSL_connect
                0x0302bcc8      0x1c8 icomlib.a(ssl_api.o)
                0x0302bcc8                SSL_connect
 .text.SSL_deinit
                0x0302be90       0x2c icomlib.a(ssl_api.o)
                0x0302be90                SSL_deinit
 .text          0x0302bebc        0x0 icomlib.a(osdep.o)
 .text.osdepTimeOpen
                0x0302bebc        0x8 icomlib.a(osdep.o)
                0x0302bebc                osdepTimeOpen
 .text.osdepTimeClose
                0x0302bec4        0x4 icomlib.a(osdep.o)
                0x0302bec4                osdepTimeClose
 .text.psGetTime
                0x0302bec8        0x4 icomlib.a(osdep.o)
                0x0302bec8                psGetTime
 .text.psDiffMsecs
                0x0302becc        0x8 icomlib.a(osdep.o)
                0x0302becc                psDiffMsecs
 .text.psCompareTime
                0x0302bed4       0x10 icomlib.a(osdep.o)
                0x0302bed4                psCompareTime
 .text.osdepEntropyOpen
                0x0302bee4        0x8 icomlib.a(osdep.o)
                0x0302bee4                osdepEntropyOpen
 .text.osdepEntropyClose
                0x0302beec        0x4 icomlib.a(osdep.o)
                0x0302beec                osdepEntropyClose
 .text.psGetEntropy
                0x0302bef0       0x2c icomlib.a(osdep.o)
                0x0302bef0                psGetEntropy
 .text.osdepTraceOpen
                0x0302bf1c        0x8 icomlib.a(osdep.o)
                0x0302bf1c                osdepTraceOpen
 .text.osdepTraceClose
                0x0302bf24        0x4 icomlib.a(osdep.o)
                0x0302bf24                osdepTraceClose
 .text._psTrace
                0x0302bf28       0x10 icomlib.a(osdep.o)
                0x0302bf28                _psTrace
 .text._psTraceStr
                0x0302bf38       0x18 icomlib.a(osdep.o)
                0x0302bf38                _psTraceStr
 .text._psTraceInt
                0x0302bf50        0x4 icomlib.a(osdep.o)
                0x0302bf50                _psTraceInt
 .text._psTracePtr
                0x0302bf54        0x4 icomlib.a(osdep.o)
                0x0302bf54                _psTracePtr
 .text.psGetFileBuf
                0x0302bf58       0xd0 icomlib.a(osdep.o)
                0x0302bf58                psGetFileBuf
 .text          0x0302c028        0x0 icomlib.a(tls.o)
 .text.tlsDeriveKeys
                0x0302c028      0x1f8 icomlib.a(tls.o)
                0x0302c028                tlsDeriveKeys
 .text.tlsHMACSha1
                0x0302c220       0xbc icomlib.a(tls.o)
                0x0302c220                tlsHMACSha1
 .text.tlsHMACSha2
                0x0302c2dc       0xd4 icomlib.a(tls.o)
                0x0302c2dc                tlsHMACSha2
 .text.sslCreateKeys
                0x0302c3b0       0x14 icomlib.a(tls.o)
                0x0302c3b0                sslCreateKeys
 .text.sslActivateReadCipher
                0x0302c3c4      0x100 icomlib.a(tls.o)
                0x0302c3c4                sslActivateReadCipher
 .text.sslActivateWriteCipher
                0x0302c4c4      0x100 icomlib.a(tls.o)
                0x0302c4c4                sslActivateWriteCipher
 .text.matrixSslNewHelloExtension
                0x0302c5c4       0x40 icomlib.a(tls.o)
                0x0302c5c4                matrixSslNewHelloExtension
 .text.matrixSslDeleteHelloExtension
                0x0302c604       0x50 icomlib.a(tls.o)
                0x0302c604                matrixSslDeleteHelloExtension
 .text.matrixSslLoadHelloExtension
                0x0302c654       0xec icomlib.a(tls.o)
                0x0302c654                matrixSslLoadHelloExtension
 .text          0x0302c740        0x0 icomlib.a(matrixssl.o)
 .text.verifyReadKeys
                0x0302c740       0xe0 icomlib.a(matrixssl.o)
 .text.wildcardMatch
                0x0302c820       0x74 icomlib.a(matrixssl.o)
 .text.matrixSslOpenWithConfig
                0x0302c894       0xc8 icomlib.a(matrixssl.o)
                0x0302c894                matrixSslOpenWithConfig
 .text.matrixSslClose
                0x0302c95c        0x4 icomlib.a(matrixssl.o)
                0x0302c95c                matrixSslClose
 .text.matrixSslNewKeys
                0x0302c960       0x48 icomlib.a(matrixssl.o)
                0x0302c960                matrixSslNewKeys
 .text.matrixSslLoadRsaKeysbuf
                0x0302c9a8      0x23c icomlib.a(matrixssl.o)
                0x0302c9a8                matrixSslLoadRsaKeysbuf
 .text.matrixSslLoadRsaKeys
                0x0302cbe4      0x228 icomlib.a(matrixssl.o)
                0x0302cbe4                matrixSslLoadRsaKeys
 .text.matrixSslLoadRsaCAarray
                0x0302ce0c       0x30 icomlib.a(matrixssl.o)
                0x0302ce0c                matrixSslLoadRsaCAarray
 .text.matrixSslLoadRsaKeysMem
                0x0302ce3c      0x15c icomlib.a(matrixssl.o)
                0x0302ce3c                matrixSslLoadRsaKeysMem
 .text.matrixSslDeleteKeys
                0x0302cf98       0x3c icomlib.a(matrixssl.o)
                0x0302cf98                matrixSslDeleteKeys
 .text.matrixSslDeleteSession
                0x0302cfd4       0xb8 icomlib.a(matrixssl.o)
                0x0302cfd4                matrixSslDeleteSession
 .text.matrixSslNewSession
                0x0302d08c      0x248 icomlib.a(matrixssl.o)
                0x0302d08c                matrixSslNewSession
 .text.matrixSslSetSessionOption
                0x0302d2d4       0x1c icomlib.a(matrixssl.o)
                0x0302d2d4                matrixSslSetSessionOption
 .text.matrixSslGetAnonStatus
                0x0302d2f0        0xc icomlib.a(matrixssl.o)
                0x0302d2f0                matrixSslGetAnonStatus
 .text.matrixSslHandshakeIsComplete
                0x0302d2fc       0x14 icomlib.a(matrixssl.o)
                0x0302d2fc                matrixSslHandshakeIsComplete
 .text.matrixSslSetCertValidator
                0x0302d310       0x10 icomlib.a(matrixssl.o)
                0x0302d310                matrixSslSetCertValidator
 .text.matrixSslGetSessionId
                0x0302d320       0xac icomlib.a(matrixssl.o)
                0x0302d320                matrixSslGetSessionId
 .text.matrixSslCreateSNIext
                0x0302d3cc       0x74 icomlib.a(matrixssl.o)
                0x0302d3cc                matrixSslCreateSNIext
 .text.sslResetContext
                0x0302d440       0x2c icomlib.a(matrixssl.o)
                0x0302d440                sslResetContext
 .text.matrixValidateCerts
                0x0302d46c      0x2a8 icomlib.a(matrixssl.o)
                0x0302d46c                matrixValidateCerts
 .text.matrixUserCertValidator
                0x0302d714       0x34 icomlib.a(matrixssl.o)
                0x0302d714                matrixUserCertValidator
 .text          0x0302d748        0x0 icomlib.a(matrixsslApi.o)
 .text.matrixSslNewClientSession
                0x0302d748      0x270 icomlib.a(matrixsslApi.o)
                0x0302d748                matrixSslNewClientSession
 .text.matrixSslNewSessionId
                0x0302d9b8       0x40 icomlib.a(matrixsslApi.o)
                0x0302d9b8                matrixSslNewSessionId
 .text.matrixSslClearSessionId
                0x0302d9f8       0x20 icomlib.a(matrixsslApi.o)
                0x0302d9f8                matrixSslClearSessionId
 .text.matrixSslDeleteSessionId
                0x0302da18       0x34 icomlib.a(matrixsslApi.o)
                0x0302da18                matrixSslDeleteSessionId
 .text.matrixSslGetReadbuf
                0x0302da4c       0x88 icomlib.a(matrixsslApi.o)
                0x0302da4c                matrixSslGetReadbuf
 .text.matrixSslGetOutdata
                0x0302dad4       0x74 icomlib.a(matrixsslApi.o)
                0x0302dad4                matrixSslGetOutdata
 .text.matrixSslGetWritebuf
                0x0302db48      0x22c icomlib.a(matrixsslApi.o)
                0x0302db48                matrixSslGetWritebuf
 .text.matrixSslEncodeToUserBuf
                0x0302dd74       0x3c icomlib.a(matrixsslApi.o)
                0x0302dd74                matrixSslEncodeToUserBuf
 .text.matrixSslEncodeWritebuf
                0x0302ddb0      0x194 icomlib.a(matrixsslApi.o)
                0x0302ddb0                matrixSslEncodeWritebuf
 .text.matrixSslEncodeToOutdata
                0x0302df44      0x15c icomlib.a(matrixsslApi.o)
                0x0302df44                matrixSslEncodeToOutdata
 .text.matrixSslReceivedData
                0x0302e0a0      0x684 icomlib.a(matrixsslApi.o)
                0x0302e0a0                matrixSslReceivedData
 .text.matrixSslProcessedData
                0x0302e724      0x120 icomlib.a(matrixsslApi.o)
                0x0302e724                matrixSslProcessedData
 .text.matrixSslEncodeClosureAlert
                0x0302e844      0x128 icomlib.a(matrixsslApi.o)
                0x0302e844                matrixSslEncodeClosureAlert
 .text.matrixSslEncodeRehandshake
                0x0302e96c        0x8 icomlib.a(matrixsslApi.o)
                0x0302e96c                matrixSslEncodeRehandshake
 .text.matrixSslDisableRehandshakes
                0x0302e974        0x8 icomlib.a(matrixsslApi.o)
                0x0302e974                matrixSslDisableRehandshakes
 .text.matrixSslReEnableRehandshakes
                0x0302e97c        0x8 icomlib.a(matrixsslApi.o)
                0x0302e97c                matrixSslReEnableRehandshakes
 .text.matrixSslSentData
                0x0302e984      0x130 icomlib.a(matrixsslApi.o)
                0x0302e984                matrixSslSentData
 .text          0x0302eab4        0x0 icomlib.a(sslDecode.o)
 .text.matrixSslDecode
                0x0302eab4     0x1a18 icomlib.a(sslDecode.o)
                0x0302eab4                matrixSslDecode
 .text          0x030304cc        0x0 icomlib.a(sslEncode.o)
 .text.secureWriteAdditions
                0x030304cc       0x38 icomlib.a(sslEncode.o)
 .text.postponeEncryptRecord.isra.1
                0x03030504      0x100 icomlib.a(sslEncode.o)
 .text.matrixSslGetEncodedSize
                0x03030604       0xc4 icomlib.a(sslEncode.o)
                0x03030604                matrixSslGetEncodedSize
 .text.clearFlightList
                0x030306c8       0x2c icomlib.a(sslEncode.o)
                0x030306c8                clearFlightList
 .text.getPkaAfter
                0x030306f4       0x40 icomlib.a(sslEncode.o)
                0x030306f4                getPkaAfter
 .text.clearPkaAfter
                0x03030734       0x94 icomlib.a(sslEncode.o)
                0x03030734                clearPkaAfter
 .text.freePkaAfter
                0x030307c8       0x18 icomlib.a(sslEncode.o)
                0x030307c8                freePkaAfter
 .text.matrixSslEncodeHelloRequest
                0x030307e0        0x8 icomlib.a(sslEncode.o)
                0x030307e0                matrixSslEncodeHelloRequest
 .text.psWriteRecordInfo
                0x030307e8       0x30 icomlib.a(sslEncode.o)
                0x030307e8                psWriteRecordInfo
 .text.writeRecordHeader
                0x03030818      0x268 icomlib.a(sslEncode.o)
 .text.writeChangeCipherSpec
                0x03030a80       0xcc icomlib.a(sslEncode.o)
 .text.writeFinished
                0x03030b4c      0x11c icomlib.a(sslEncode.o)
 .text.psWriteHandshakeHeader
                0x03030c68       0x24 icomlib.a(sslEncode.o)
                0x03030c68                psWriteHandshakeHeader
 .text.sslWritePad
                0x03030c8c       0x24 icomlib.a(sslEncode.o)
                0x03030c8c                sslWritePad
 .text.encryptRecord.isra.3
                0x03030cb0      0x2c4 icomlib.a(sslEncode.o)
 .text.matrixSslEncode
                0x03030f74      0x224 icomlib.a(sslEncode.o)
                0x03030f74                matrixSslEncode
 .text.writeAlert
                0x03031198       0xf4 icomlib.a(sslEncode.o)
 .text.sslEncodeClosureAlert
                0x0303128c       0x34 icomlib.a(sslEncode.o)
                0x0303128c                sslEncodeClosureAlert
 .text.sslEncodeResponse
                0x030312c0     0x1124 icomlib.a(sslEncode.o)
                0x030312c0                sslEncodeResponse
 .text.matrixSslEncodeClientHello
                0x030323e4      0x8b8 icomlib.a(sslEncode.o)
                0x030323e4                matrixSslEncodeClientHello
 .text          0x03032c9c        0x0 icomlib.a(drv_pwm.o)
 .text.drv_pwm_specialfreq
                0x03032c9c       0x4c icomlib.a(drv_pwm.o)
                0x03032c9c                drv_pwm_specialfreq
 .text.drv_pwm_setduty
                0x03032ce8       0x7c icomlib.a(drv_pwm.o)
                0x03032ce8                drv_pwm_setduty
 .text.drv_pwm_init
                0x03032d64       0x4c icomlib.a(drv_pwm.o)
                0x03032d64                drv_pwm_init
 .text.drv_pwm_enable
                0x03032db0       0x14 icomlib.a(drv_pwm.o)
                0x03032db0                drv_pwm_enable
 .text.drv_pwm_deinit
                0x03032dc4       0x38 icomlib.a(drv_pwm.o)
                0x03032dc4                drv_pwm_deinit
 .text.drv_pwm_disable
                0x03032dfc       0x14 icomlib.a(drv_pwm.o)
                0x03032dfc                drv_pwm_disable
 .text          0x03032e10        0x0 icomlib.a(corelib.o)
 .text.psCoreClose
                0x03032e10       0x2c icomlib.a(corelib.o)
                0x03032e10                psCoreClose
 .text.memcmpct
                0x03032e3c       0x30 icomlib.a(corelib.o)
                0x03032e3c                memcmpct
 .text._psError
                0x03032e6c       0x18 icomlib.a(corelib.o)
                0x03032e6c                _psError
 .text._psErrorInt
                0x03032e84       0x18 icomlib.a(corelib.o)
                0x03032e84                _psErrorInt
 .text._psErrorStr
                0x03032e9c       0x18 icomlib.a(corelib.o)
                0x03032e9c                _psErrorStr
 .text.psCoreOpen
                0x03032eb4       0xb4 icomlib.a(corelib.o)
                0x03032eb4                psCoreOpen
 .text.psTraceBytes
                0x03032f68      0x124 icomlib.a(corelib.o)
                0x03032f68                psTraceBytes
 .text.psFreeList
                0x0303308c       0x34 icomlib.a(corelib.o)
                0x0303308c                psFreeList
 .text.psParseList
                0x030330c0      0x13c icomlib.a(corelib.o)
                0x030330c0                psParseList
 .text.psBurnStack
                0x030331fc       0x30 icomlib.a(corelib.o)
                0x030331fc                psBurnStack
 .text          0x0303322c        0x0 icomlib.a(prng.o)
 .text.psOpenPrng
                0x0303322c       0x28 icomlib.a(prng.o)
                0x0303322c                psOpenPrng
 .text.psClosePrng
                0x03033254        0x4 icomlib.a(prng.o)
                0x03033254                psClosePrng
 .text.matrixCryptoGetPrngData
                0x03033258       0x48 icomlib.a(prng.o)
                0x03033258                matrixCryptoGetPrngData
 .text.psInitPrng
                0x030332a0       0x10 icomlib.a(prng.o)
                0x030332a0                psInitPrng
 .text.psGetPrng
                0x030332b0       0x24 icomlib.a(prng.o)
                0x030332b0                psGetPrng
 .text          0x030332d4        0x0 icomlib.a(hmac.o)
 .text.psHmacMd5Init
                0x030332d4       0xd0 icomlib.a(hmac.o)
                0x030332d4                psHmacMd5Init
 .text.psHmacMd5Update
                0x030333a4       0x60 icomlib.a(hmac.o)
                0x030333a4                psHmacMd5Update
 .text.psHmacMd5Final
                0x03033404       0xac icomlib.a(hmac.o)
                0x03033404                psHmacMd5Final
 .text.psHmacMd5
                0x030334b0       0xa0 icomlib.a(hmac.o)
                0x030334b0                psHmacMd5
 .text.psHmacSha1Init
                0x03033550       0xd0 icomlib.a(hmac.o)
                0x03033550                psHmacSha1Init
 .text.psHmacSha1Update
                0x03033620       0x60 icomlib.a(hmac.o)
                0x03033620                psHmacSha1Update
 .text.psHmacSha1Final
                0x03033680       0xac icomlib.a(hmac.o)
                0x03033680                psHmacSha1Final
 .text.psHmacSha1
                0x0303372c       0xa0 icomlib.a(hmac.o)
                0x0303372c                psHmacSha1
 .text.psHmacSha2Init
                0x030337cc       0xe0 icomlib.a(hmac.o)
                0x030337cc                psHmacSha2Init
 .text.psHmacSha2Update
                0x030338ac       0x70 icomlib.a(hmac.o)
                0x030338ac                psHmacSha2Update
 .text.psHmacSha2Final
                0x0303391c       0xc4 icomlib.a(hmac.o)
                0x0303391c                psHmacSha2Final
 .text.psHmacSha2
                0x030339e0       0xc4 icomlib.a(hmac.o)
                0x030339e0                psHmacSha2
 .text          0x03033aa4        0x0 icomlib.a(pubkey.o)
 .text.psCryptoOpen
                0x03033aa4       0xcc icomlib.a(pubkey.o)
                0x03033aa4                psCryptoOpen
 .text.psCryptoClose
                0x03033b70       0x10 icomlib.a(pubkey.o)
                0x03033b70                psCryptoClose
 .text.psNewPubKey
                0x03033b80       0xb8 icomlib.a(pubkey.o)
                0x03033b80                psNewPubKey
 .text.psFreePubKey
                0x03033c38       0x34 icomlib.a(pubkey.o)
                0x03033c38                psFreePubKey
 .text          0x03033c6c        0x0 icomlib.a(rsa.o)
 .text.psRsaFreeKey
                0x03033c6c       0x54 icomlib.a(rsa.o)
                0x03033c6c                psRsaFreeKey
 .text.psRsaCrypt
                0x03033cc0      0x314 icomlib.a(rsa.o)
                0x03033cc0                psRsaCrypt
 .text.psRsaEncryptPriv
                0x03033fd4       0x94 icomlib.a(rsa.o)
                0x03033fd4                psRsaEncryptPriv
 .text.psRsaEncryptPub
                0x03034068       0x94 icomlib.a(rsa.o)
                0x03034068                psRsaEncryptPub
 .text.psRsaDecryptPriv
                0x030340fc       0x80 icomlib.a(rsa.o)
                0x030340fc                psRsaDecryptPriv
 .text.psRsaDecryptPub
                0x0303417c       0x80 icomlib.a(rsa.o)
                0x0303417c                psRsaDecryptPub
 .text.pubRsaDecryptSignedElement
                0x030341fc      0x250 icomlib.a(rsa.o)
                0x030341fc                pubRsaDecryptSignedElement
 .text.privRsaEncryptSignedElement
                0x0303444c       0xcc icomlib.a(rsa.o)
                0x0303444c                privRsaEncryptSignedElement
 .text          0x03034518        0x0 icomlib.a(pkcs.o)
 .text.pkcs1Pad
                0x03034518       0xc8 icomlib.a(pkcs.o)
                0x03034518                pkcs1Pad
 .text.pkcs1Unpad
                0x030345e0       0x90 icomlib.a(pkcs.o)
                0x030345e0                pkcs1Unpad
 .text.pkcs1ParsePrivBin
                0x03034670      0x228 icomlib.a(pkcs.o)
                0x03034670                pkcs1ParsePrivBin
 .text.pkcs1DecodePrivbuf
                0x03034898      0x144 icomlib.a(pkcs.o)
                0x03034898                pkcs1DecodePrivbuf
 .text.pkcs1ParsePrivbuf
                0x030349dc       0x78 icomlib.a(pkcs.o)
                0x030349dc                pkcs1ParsePrivbuf
 .text.pkcs1DecodePrivFile
                0x03034a54       0x6c icomlib.a(pkcs.o)
                0x03034a54                pkcs1DecodePrivFile
 .text.pkcs1ParsePrivFile
                0x03034ac0       0x74 icomlib.a(pkcs.o)
                0x03034ac0                pkcs1ParsePrivFile
 .text          0x03034b34        0x0 icomlib.a(asn1.o)
 .text.getAsnLength
                0x03034b34       0xa8 icomlib.a(asn1.o)
                0x03034b34                getAsnLength
 .text.getAsnBig
                0x03034bdc       0xac icomlib.a(asn1.o)
                0x03034bdc                getAsnBig
 .text.getAsnSequence
                0x03034c88       0x70 icomlib.a(asn1.o)
                0x03034c88                getAsnSequence
 .text.getAsnSequenceNoLenCheck
                0x03034cf8       0x50 icomlib.a(asn1.o)
                0x03034cf8                getAsnSequenceNoLenCheck
 .text.getAsnSet
                0x03034d48       0x70 icomlib.a(asn1.o)
                0x03034d48                getAsnSet
 .text.getAsnInteger
                0x03034db8       0xf8 icomlib.a(asn1.o)
                0x03034db8                getAsnInteger
 .text.getAsnOID
                0x03034eb0      0x108 icomlib.a(asn1.o)
                0x03034eb0                getAsnOID
 .text.getStreamingAsnAlgorithmIdentifier
                0x03034fb8       0x8c icomlib.a(asn1.o)
                0x03034fb8                getStreamingAsnAlgorithmIdentifier
 .text.getAsnAlgorithmIdentifier
                0x03035044       0x7c icomlib.a(asn1.o)
                0x03035044                getAsnAlgorithmIdentifier
 .text.getAsnConstructedOctetString
                0x030350c0      0x1f4 icomlib.a(asn1.o)
                0x030350c0                getAsnConstructedOctetString
 .text.getAsnRsaPubKey
                0x030352b4      0x144 icomlib.a(asn1.o)
                0x030352b4                getAsnRsaPubKey
 .text          0x030353f8        0x0 icomlib.a(base64.o)
 .text.psBase64decode
                0x030353f8      0x118 icomlib.a(base64.o)
                0x030353f8                psBase64decode
 .text          0x03035510        0x0 icomlib.a(x509.o)
 .text.pemCertFileBufToX509
                0x03035510      0x24c icomlib.a(x509.o)
 .text.parseGeneralNames
                0x0303575c      0x3bc icomlib.a(x509.o)
 .text.getImplicitBitString.isra.2
                0x03035b18      0x110 icomlib.a(x509.o)
 .text.x509FreeExtensions
                0x03035c28      0x128 icomlib.a(x509.o)
                0x03035c28                x509FreeExtensions
 .text.psX509GetSignature
                0x03035d50      0x134 icomlib.a(x509.o)
                0x03035d50                psX509GetSignature
 .text.psX509ValidateGeneralName
                0x03035e84       0xfc icomlib.a(x509.o)
                0x03035e84                psX509ValidateGeneralName
 .text.getSerialNum
                0x03035f80       0xe8 icomlib.a(x509.o)
                0x03035f80                getSerialNum
 .text.psX509GetDNAttributes
                0x03036068      0x4dc icomlib.a(x509.o)
                0x03036068                psX509GetDNAttributes
 .text.getExplicitExtensions
                0x03036544      0x920 icomlib.a(x509.o)
                0x03036544                getExplicitExtensions
 .text.psX509ParseCert
                0x03036e64      0xa3c icomlib.a(x509.o)
                0x03036e64                psX509ParseCert
 .text.psX509FreeDNStruct
                0x030378a0       0x64 icomlib.a(x509.o)
                0x030378a0                psX509FreeDNStruct
 .text.psX509FreeCert
                0x03037904       0xd8 icomlib.a(x509.o)
                0x03037904                psX509FreeCert
 .text.psX509ParseCertArray
                0x030379dc       0xbc icomlib.a(x509.o)
                0x030379dc                psX509ParseCertArray
 .text.psX509ParseCertFile
                0x03037a98      0x184 icomlib.a(x509.o)
                0x03037a98                psX509ParseCertFile
 .text.psX509AuthenticateCert
                0x03037c1c      0x4e0 icomlib.a(x509.o)
                0x03037c1c                psX509AuthenticateCert
 .text          0x030380fc        0x0 icomlib.a(prf.o)
 .text.prf      0x030380fc      0x334 icomlib.a(prf.o)
                0x030380fc                prf
 .text.prf2     0x03038430      0x1e4 icomlib.a(prf.o)
                0x03038430                prf2
 .text          0x03038614        0x0 icomlib.a(cipherSuite.o)
 .text.csNullInit
                0x03038614        0x8 icomlib.a(cipherSuite.o)
 .text.csNullGenerateMac
                0x0303861c        0x8 icomlib.a(cipherSuite.o)
 .text.csNullVerifyMac
                0x03038624        0x8 icomlib.a(cipherSuite.o)
 .text.csAesEncrypt
                0x0303862c        0x8 icomlib.a(cipherSuite.o)
                0x0303862c                csAesEncrypt
 .text.csAesDecrypt
                0x03038634        0xc icomlib.a(cipherSuite.o)
                0x03038634                csAesDecrypt
 .text.csNullDecrypt
                0x03038640       0x20 icomlib.a(cipherSuite.o)
 .text.csNullEncrypt
                0x03038660       0x20 icomlib.a(cipherSuite.o)
 .text.csShaGenerateMac
                0x03038680       0x88 icomlib.a(cipherSuite.o)
 .text.csShaVerifyMac
                0x03038708       0x80 icomlib.a(cipherSuite.o)
 .text.csAesInit
                0x03038788       0x68 icomlib.a(cipherSuite.o)
                0x03038788                csAesInit
 .text.csRsaEncryptPub
                0x030387f0       0x84 icomlib.a(cipherSuite.o)
                0x030387f0                csRsaEncryptPub
 .text.csRsaDecryptPub
                0x03038874       0x84 icomlib.a(cipherSuite.o)
                0x03038874                csRsaDecryptPub
 .text.csRsaEncryptPriv
                0x030388f8       0x80 icomlib.a(cipherSuite.o)
                0x030388f8                csRsaEncryptPriv
 .text.csRsaDecryptPriv
                0x03038978       0x84 icomlib.a(cipherSuite.o)
                0x03038978                csRsaDecryptPriv
 .text.haveKeyMaterial
                0x030389fc       0x78 icomlib.a(cipherSuite.o)
                0x030389fc                haveKeyMaterial
 .text.csCheckCertAgainstCipherSuite
                0x03038a74       0x6c icomlib.a(cipherSuite.o)
                0x03038a74                csCheckCertAgainstCipherSuite
 .text.sslGetCipherSpec
                0x03038ae0       0xa8 icomlib.a(cipherSuite.o)
                0x03038ae0                sslGetCipherSpec
 .text.sslGetCipherSpecList
                0x03038b88      0x100 icomlib.a(cipherSuite.o)
                0x03038b88                sslGetCipherSpecList
 .text.sslGetCipherSpecListLen
                0x03038c88       0x94 icomlib.a(cipherSuite.o)
                0x03038c88                sslGetCipherSpecListLen
 .text.matrixSslSetKexFlags
                0x03038d1c        0x4 icomlib.a(cipherSuite.o)
                0x03038d1c                matrixSslSetKexFlags
 .text          0x03038d20        0x0 icomlib.a(hsHash.o)
 .text.sslInitHSHash
                0x03038d20       0x28 icomlib.a(hsHash.o)
                0x03038d20                sslInitHSHash
 .text.sslUpdateHSHash
                0x03038d48       0x7c icomlib.a(hsHash.o)
                0x03038d48                sslUpdateHSHash
 .text.sslSha1SnapshotHSHash
                0x03038dc4        0x8 icomlib.a(hsHash.o)
                0x03038dc4                sslSha1SnapshotHSHash
 .text.sslSnapshotHSHash
                0x03038dcc      0x158 icomlib.a(hsHash.o)
                0x03038dcc                sslSnapshotHSHash
 .text          0x03038f24        0x0 icomlib.a(time.o)
 .text.icomm_localtime
                0x03038f24      0x1ac icomlib.a(time.o)
                0x03038f24                icomm_localtime
 .text.aliyun_time
                0x030390d0       0xbc icomlib.a(time.o)
                0x030390d0                aliyun_time
 .text          0x0303918c        0x0 ./thirdPartyLib/libdtlib.a(common_general_)
 .text.get_CRC  0x0303918c       0x30 ./thirdPartyLib/libdtlib.a(common_general_)
                0x0303918c                get_CRC
 .text.check_crc_data
                0x030391bc       0x40 ./thirdPartyLib/libdtlib.a(common_general_)
                0x030391bc                check_crc_data
 .text.Mosaic_array
                0x030391fc       0x54 ./thirdPartyLib/libdtlib.a(common_general_)
                0x030391fc                Mosaic_array
 .text.ip_array_to_str
                0x03039250       0x60 ./thirdPartyLib/libdtlib.a(common_general_)
                0x03039250                ip_array_to_str
 .text.mac_str_to_mac_hex_array
                0x030392b0       0x78 ./thirdPartyLib/libdtlib.a(common_general_)
                0x030392b0                mac_str_to_mac_hex_array
 .text.ip32_to_ip_array
                0x03039328       0x34 ./thirdPartyLib/libdtlib.a(common_general_)
                0x03039328                ip32_to_ip_array
 .text.type10_to_str
                0x0303935c       0x8c ./thirdPartyLib/libdtlib.a(common_general_)
                0x0303935c                type10_to_str
 .text.char_string_new
                0x030393e8       0x94 ./thirdPartyLib/libdtlib.a(common_general_)
                0x030393e8                char_string_new
 .text.printf_hex_table
                0x0303947c       0xe0 ./thirdPartyLib/libdtlib.a(common_general_)
                0x0303947c                printf_hex_table
 .text.dt_read_from_flash
                0x0303955c       0x18 ./thirdPartyLib/libdtlib.a(common_general_)
                0x0303955c                dt_read_from_flash
 .text.dt_write_to_flash
                0x03039574       0x34 ./thirdPartyLib/libdtlib.a(common_general_)
                0x03039574                dt_write_to_flash
 .text.dt_sysreset
                0x030395a8        0xc ./thirdPartyLib/libdtlib.a(common_general_)
                0x030395a8                dt_sysreset
 .text          0x030395b4        0x0 ./thirdPartyLib/libdtlib.a(udp_listen.o)
 .text.process_thread_periodic_timer_process
                0x030395b4      0x1a4 ./thirdPartyLib/libdtlib.a(udp_listen.o)
 .text.sendpack_head
                0x03039758       0x58 ./thirdPartyLib/libdtlib.a(udp_listen.o)
                0x03039758                sendpack_head
 .text.udp_broadcast_send_packet
                0x030397b0       0xc0 ./thirdPartyLib/libdtlib.a(udp_listen.o)
                0x030397b0                udp_broadcast_send_packet
 .text.send_pack_body
                0x03039870      0x110 ./thirdPartyLib/libdtlib.a(udp_listen.o)
                0x03039870                send_pack_body
 .text.broadcast_decode
                0x03039980      0x450 ./thirdPartyLib/libdtlib.a(udp_listen.o)
                0x03039980                broadcast_decode
 .text.udp_decode
                0x03039dd0       0x78 ./thirdPartyLib/libdtlib.a(udp_listen.o)
                0x03039dd0                udp_decode
 .text.udp_server_decode
                0x03039e48      0x10c ./thirdPartyLib/libdtlib.a(udp_listen.o)
                0x03039e48                udp_server_decode
 .text.process_thread_udp_server_process
                0x03039f54      0x208 ./thirdPartyLib/libdtlib.a(udp_listen.o)
 .text.dt_udp_broadcast_send
                0x0303a15c      0x11c ./thirdPartyLib/libdtlib.a(udp_listen.o)
                0x0303a15c                dt_udp_broadcast_send
 .text.Dt_UDPBROADCASTCreate
                0x0303a278       0xbc ./thirdPartyLib/libdtlib.a(udp_listen.o)
                0x0303a278                Dt_UDPBROADCASTCreate
 .text.dt_system_param_init
                0x0303a334      0x370 ./thirdPartyLib/libdtlib.a(udp_listen.o)
                0x0303a334                dt_system_param_init
 .text.dt_start_udp_server
                0x0303a6a4      0x160 ./thirdPartyLib/libdtlib.a(udp_listen.o)
                0x0303a6a4                dt_start_udp_server
 .text          0x0303a804        0x0 ./thirdPartyLib/libdtlib.a(dt_mqtt.o)
 .text.send_packet
                0x0303a804       0x10 ./thirdPartyLib/libdtlib.a(dt_mqtt.o)
 .text.dt_mqtt_connet_socket.constprop.11
                0x0303a814       0xf4 ./thirdPartyLib/libdtlib.a(dt_mqtt.o)
 .text.mqtt_publish_with_qos.isra.5.constprop.21
                0x0303a908      0x134 ./thirdPartyLib/libdtlib.a(dt_mqtt.o)
 .text.dt_mqtt_publish
                0x0303aa3c       0x10 ./thirdPartyLib/libdtlib.a(dt_mqtt.o)
                0x0303aa3c                dt_mqtt_publish
 .text.dt_mqtt_send
                0x0303aa4c      0x12c ./thirdPartyLib/libdtlib.a(dt_mqtt.o)
                0x0303aa4c                dt_mqtt_send
 .text.DT_mqtt_ping
                0x0303ab78      0x110 ./thirdPartyLib/libdtlib.a(dt_mqtt.o)
                0x0303ab78                DT_mqtt_ping
 .text.reset_mqtt_flag
                0x0303ac88       0x20 ./thirdPartyLib/libdtlib.a(dt_mqtt.o)
                0x0303ac88                reset_mqtt_flag
 .text.process_thread_dt_mqtt_client_process
                0x0303aca8      0xce8 ./thirdPartyLib/libdtlib.a(dt_mqtt.o)
 .text.dt_check_wheather_connect_cloud
                0x0303b990       0x10 ./thirdPartyLib/libdtlib.a(dt_mqtt.o)
                0x0303b990                dt_check_wheather_connect_cloud
 .text.dt_start_mqtt_server
                0x0303b9a0       0x84 ./thirdPartyLib/libdtlib.a(dt_mqtt.o)
                0x0303b9a0                dt_start_mqtt_server
 .text.dt_send_data_to_app_clound
                0x0303ba24      0x16c ./thirdPartyLib/libdtlib.a(dt_mqtt.o)
                0x0303ba24                dt_send_data_to_app_clound
 .text          0x0303bb90        0x0 ./thirdPartyLib/libdtlib.a(dt_tcp_serve.o)
 .text.get_protocol_data
                0x0303bb90       0xe0 ./thirdPartyLib/libdtlib.a(dt_tcp_serve.o)
                0x0303bb90                get_protocol_data
 .text.process_thread_tcp_connect_process
                0x0303bc70      0x3ec ./thirdPartyLib/libdtlib.a(dt_tcp_serve.o)
 .text.dt_tcp_send
                0x0303c05c       0x88 ./thirdPartyLib/libdtlib.a(dt_tcp_serve.o)
                0x0303c05c                dt_tcp_send
 .text.dt_start_tcp_server
                0x0303c0e4      0x118 ./thirdPartyLib/libdtlib.a(dt_tcp_serve.o)
                0x0303c0e4                dt_start_tcp_server
 .text          0x0303c1fc       0x44 /usr/bin/../lib/gcc/arm-none-eabi/4.8.4/libgcc.a(_aeabi_ldivmod.o)
                0x0303c1fc                __aeabi_ldivmod
 .text          0x0303c240       0x48 /usr/bin/../lib/gcc/arm-none-eabi/4.8.4/libgcc.a(_clzsi2.o)
                0x0303c240                __clzsi2
 .text          0x0303c288        0x0 /usr/bin/../lib/gcc/arm-none-eabi/4.8.4/../../../../arm-none-eabi/lib/libg_s.a(lib_a-atoi.o)
 .text.atoi     0x0303c288       0x18 /usr/bin/../lib/gcc/arm-none-eabi/4.8.4/../../../../arm-none-eabi/lib/libg_s.a(lib_a-atoi.o)
                0x0303c288                atoi
 .text._atoi_r  0x0303c2a0       0x18 /usr/bin/../lib/gcc/arm-none-eabi/4.8.4/../../../../arm-none-eabi/lib/libg_s.a(lib_a-atoi.o)
                0x0303c2a0                _atoi_r
 .text          0x0303c2b8        0x0 /usr/bin/../lib/gcc/arm-none-eabi/4.8.4/../../../../arm-none-eabi/lib/libg_s.a(lib_a-ctype_.o)
 .text          0x0303c2b8        0x0 /usr/bin/../lib/gcc/arm-none-eabi/4.8.4/../../../../arm-none-eabi/lib/libg_s.a(lib_a-errno.o)
 .text.__errno  0x0303c2b8       0x10 /usr/bin/../lib/gcc/arm-none-eabi/4.8.4/../../../../arm-none-eabi/lib/libg_s.a(lib_a-errno.o)
                0x0303c2b8                __errno
 .text          0x0303c2c8        0x0 /usr/bin/../lib/gcc/arm-none-eabi/4.8.4/../../../../arm-none-eabi/lib/libg_s.a(lib_a-impure.o)
 .text          0x0303c2c8        0x0 /usr/bin/../lib/gcc/arm-none-eabi/4.8.4/../../../../arm-none-eabi/lib/libg_s.a(lib_a-malloc.o)
 .text.malloc   0x0303c2c8       0x20 /usr/bin/../lib/gcc/arm-none-eabi/4.8.4/../../../../arm-none-eabi/lib/libg_s.a(lib_a-malloc.o)
                0x0303c2c8                malloc
 .text.free     0x0303c2e8       0x20 /usr/bin/../lib/gcc/arm-none-eabi/4.8.4/../../../../arm-none-eabi/lib/libg_s.a(lib_a-malloc.o)
                0x0303c2e8                free
 .text          0x0303c308        0x0 /usr/bin/../lib/gcc/arm-none-eabi/4.8.4/../../../../arm-none-eabi/lib/libg_s.a(lib_a-memmove.o)
 .text.memmove  0x0303c308       0x64 /usr/bin/../lib/gcc/arm-none-eabi/4.8.4/../../../../arm-none-eabi/lib/libg_s.a(lib_a-memmove.o)
                0x0303c308                memmove
 .text          0x0303c36c        0x0 /usr/bin/../lib/gcc/arm-none-eabi/4.8.4/../../../../arm-none-eabi/lib/libg_s.a(lib_a-mstats.o)
 .text.mallinfo
                0x0303c36c       0x24 /usr/bin/../lib/gcc/arm-none-eabi/4.8.4/../../../../arm-none-eabi/lib/libg_s.a(lib_a-mstats.o)
                0x0303c36c                mallinfo
 .text.malloc_stats
                0x0303c390       0x1c /usr/bin/../lib/gcc/arm-none-eabi/4.8.4/../../../../arm-none-eabi/lib/libg_s.a(lib_a-mstats.o)
                0x0303c390                malloc_stats
 .text.mallopt  0x0303c3ac       0x28 /usr/bin/../lib/gcc/arm-none-eabi/4.8.4/../../../../arm-none-eabi/lib/libg_s.a(lib_a-mstats.o)
                0x0303c3ac                mallopt
 .text._mstats_r
                0x0303c3d4       0x40 /usr/bin/../lib/gcc/arm-none-eabi/4.8.4/../../../../arm-none-eabi/lib/libg_s.a(lib_a-mstats.o)
                0x0303c3d4                _mstats_r
 .text.mstats   0x0303c414       0x14 /usr/bin/../lib/gcc/arm-none-eabi/4.8.4/../../../../arm-none-eabi/lib/libg_s.a(lib_a-mstats.o)
                0x0303c414                mstats
 .text          0x0303c428        0x0 /usr/bin/../lib/gcc/arm-none-eabi/4.8.4/../../../../arm-none-eabi/lib/libg_s.a(lib_a-nano-freer.o)
 .text._free_r  0x0303c428      0x104 /usr/bin/../lib/gcc/arm-none-eabi/4.8.4/../../../../arm-none-eabi/lib/libg_s.a(lib_a-nano-freer.o)
                0x0303c428                _free_r
 .text          0x0303c52c        0x0 /usr/bin/../lib/gcc/arm-none-eabi/4.8.4/../../../../arm-none-eabi/lib/libg_s.a(lib_a-nano-mallinfor.o)
 .text._mallinfo_r
                0x0303c52c       0x9c /usr/bin/../lib/gcc/arm-none-eabi/4.8.4/../../../../arm-none-eabi/lib/libg_s.a(lib_a-nano-mallinfor.o)
                0x0303c52c                _mallinfo_r
 .text          0x0303c5c8        0x0 /usr/bin/../lib/gcc/arm-none-eabi/4.8.4/../../../../arm-none-eabi/lib/libg_s.a(lib_a-nano-mallocr.o)
 .text._malloc_r
                0x0303c5c8      0x124 /usr/bin/../lib/gcc/arm-none-eabi/4.8.4/../../../../arm-none-eabi/lib/libg_s.a(lib_a-nano-mallocr.o)
                0x0303c5c8                _malloc_r
 .text          0x0303c6ec        0x0 /usr/bin/../lib/gcc/arm-none-eabi/4.8.4/../../../../arm-none-eabi/lib/libg_s.a(lib_a-nano-malloptr.o)
 .text._mallopt_r
                0x0303c6ec        0x8 /usr/bin/../lib/gcc/arm-none-eabi/4.8.4/../../../../arm-none-eabi/lib/libg_s.a(lib_a-nano-malloptr.o)
                0x0303c6ec                _mallopt_r
 .text          0x0303c6f4        0x0 /usr/bin/../lib/gcc/arm-none-eabi/4.8.4/../../../../arm-none-eabi/lib/libg_s.a(lib_a-nano-mallstatsr.o)
 .text._malloc_stats_r
                0x0303c6f4       0x78 /usr/bin/../lib/gcc/arm-none-eabi/4.8.4/../../../../arm-none-eabi/lib/libg_s.a(lib_a-nano-mallstatsr.o)
                0x0303c6f4                _malloc_stats_r
 .text          0x0303c76c        0x0 /usr/bin/../lib/gcc/arm-none-eabi/4.8.4/../../../../arm-none-eabi/lib/libg_s.a(lib_a-rand.o)
 .text.srand    0x0303c76c       0xa4 /usr/bin/../lib/gcc/arm-none-eabi/4.8.4/../../../../arm-none-eabi/lib/libg_s.a(lib_a-rand.o)
                0x0303c76c                srand
 .text.rand     0x0303c810       0xcc /usr/bin/../lib/gcc/arm-none-eabi/4.8.4/../../../../arm-none-eabi/lib/libg_s.a(lib_a-rand.o)
                0x0303c810                rand
 .text          0x0303c8dc        0x0 /usr/bin/../lib/gcc/arm-none-eabi/4.8.4/../../../../arm-none-eabi/lib/libg_s.a(lib_a-realloc.o)
 .text.realloc  0x0303c8dc       0x28 /usr/bin/../lib/gcc/arm-none-eabi/4.8.4/../../../../arm-none-eabi/lib/libg_s.a(lib_a-realloc.o)
                0x0303c8dc                realloc
 .text          0x0303c904        0x0 /usr/bin/../lib/gcc/arm-none-eabi/4.8.4/../../../../arm-none-eabi/lib/libg_s.a(lib_a-sbrkr.o)
 .text._sbrk_r  0x0303c904       0x3c /usr/bin/../lib/gcc/arm-none-eabi/4.8.4/../../../../arm-none-eabi/lib/libg_s.a(lib_a-sbrkr.o)
                0x0303c904                _sbrk_r
 .text          0x0303c940        0x0 /usr/bin/../lib/gcc/arm-none-eabi/4.8.4/../../../../arm-none-eabi/lib/libg_s.a(lib_a-strcasecmp.o)
 .text.strcasecmp
                0x0303c940       0x64 /usr/bin/../lib/gcc/arm-none-eabi/4.8.4/../../../../arm-none-eabi/lib/libg_s.a(lib_a-strcasecmp.o)
                0x0303c940                strcasecmp
 .text          0x0303c9a4        0x0 /usr/bin/../lib/gcc/arm-none-eabi/4.8.4/../../../../arm-none-eabi/lib/libg_s.a(lib_a-strchr.o)
 .text.strchr   0x0303c9a4       0x34 /usr/bin/../lib/gcc/arm-none-eabi/4.8.4/../../../../arm-none-eabi/lib/libg_s.a(lib_a-strchr.o)
                0x0303c9a4                strchr
 .text          0x0303c9d8        0x0 /usr/bin/../lib/gcc/arm-none-eabi/4.8.4/../../../../arm-none-eabi/lib/libg_s.a(lib_a-strcpy.o)
 .text.strcpy   0x0303c9d8       0x18 /usr/bin/../lib/gcc/arm-none-eabi/4.8.4/../../../../arm-none-eabi/lib/libg_s.a(lib_a-strcpy.o)
                0x0303c9d8                strcpy
 .text          0x0303c9f0        0x0 /usr/bin/../lib/gcc/arm-none-eabi/4.8.4/../../../../arm-none-eabi/lib/libg_s.a(lib_a-strncmp.o)
 .text.strncmp  0x0303c9f0       0x5c /usr/bin/../lib/gcc/arm-none-eabi/4.8.4/../../../../arm-none-eabi/lib/libg_s.a(lib_a-strncmp.o)
                0x0303c9f0                strncmp
 .text          0x0303ca4c        0x0 /usr/bin/../lib/gcc/arm-none-eabi/4.8.4/../../../../arm-none-eabi/lib/libg_s.a(lib_a-strrchr.o)
 .text.strrchr  0x0303ca4c       0x48 /usr/bin/../lib/gcc/arm-none-eabi/4.8.4/../../../../arm-none-eabi/lib/libg_s.a(lib_a-strrchr.o)
                0x0303ca4c                strrchr
 .text          0x0303ca94        0x0 /usr/bin/../lib/gcc/arm-none-eabi/4.8.4/../../../../arm-none-eabi/lib/libg_s.a(lib_a-strstr.o)
 .text.strstr   0x0303ca94       0x68 /usr/bin/../lib/gcc/arm-none-eabi/4.8.4/../../../../arm-none-eabi/lib/libg_s.a(lib_a-strstr.o)
                0x0303ca94                strstr
 .text          0x0303cafc        0x0 /usr/bin/../lib/gcc/arm-none-eabi/4.8.4/../../../../arm-none-eabi/lib/libg_s.a(lib_a-strtol.o)
 .text._strtol_r
                0x0303cafc      0x1c0 /usr/bin/../lib/gcc/arm-none-eabi/4.8.4/../../../../arm-none-eabi/lib/libg_s.a(lib_a-strtol.o)
                0x0303cafc                _strtol_r
 .text.strtol   0x0303ccbc       0x2c /usr/bin/../lib/gcc/arm-none-eabi/4.8.4/../../../../arm-none-eabi/lib/libg_s.a(lib_a-strtol.o)
                0x0303ccbc                strtol
 .text          0x0303cce8        0x0 /usr/bin/../lib/gcc/arm-none-eabi/4.8.4/../../../../arm-none-eabi/lib/libg_s.a(lib_a-strtoul.o)
 .text._strtoul_r
                0x0303cce8      0x194 /usr/bin/../lib/gcc/arm-none-eabi/4.8.4/../../../../arm-none-eabi/lib/libg_s.a(lib_a-strtoul.o)
                0x0303cce8                _strtoul_r
 .text.strtoul  0x0303ce7c       0x2c /usr/bin/../lib/gcc/arm-none-eabi/4.8.4/../../../../arm-none-eabi/lib/libg_s.a(lib_a-strtoul.o)
                0x0303ce7c                strtoul
 .text          0x0303cea8        0x0 /usr/bin/../lib/gcc/arm-none-eabi/4.8.4/../../../../arm-none-eabi/lib/libg_s.a(lib_a-findfp.o)
 .text.__fp_lock
                0x0303cea8        0x8 /usr/bin/../lib/gcc/arm-none-eabi/4.8.4/../../../../arm-none-eabi/lib/libg_s.a(lib_a-findfp.o)
 .text.__fp_unlock
                0x0303ceb0        0x8 /usr/bin/../lib/gcc/arm-none-eabi/4.8.4/../../../../arm-none-eabi/lib/libg_s.a(lib_a-findfp.o)
 .text._cleanup_r
                0x0303ceb8       0x5c /usr/bin/../lib/gcc/arm-none-eabi/4.8.4/../../../../arm-none-eabi/lib/libg_s.a(lib_a-findfp.o)
                0x0303ceb8                _cleanup_r
 .text.std.isra.0
                0x0303cf14       0x7c /usr/bin/../lib/gcc/arm-none-eabi/4.8.4/../../../../arm-none-eabi/lib/libg_s.a(lib_a-findfp.o)
 .text.__sfmoreglue
                0x0303cf90       0x48 /usr/bin/../lib/gcc/arm-none-eabi/4.8.4/../../../../arm-none-eabi/lib/libg_s.a(lib_a-findfp.o)
                0x0303cf90                __sfmoreglue
 .text._cleanup
                0x0303cfd8       0x10 /usr/bin/../lib/gcc/arm-none-eabi/4.8.4/../../../../arm-none-eabi/lib/libg_s.a(lib_a-findfp.o)
                0x0303cfd8                _cleanup
 .text.__sinit  0x0303cfe8       0xa4 /usr/bin/../lib/gcc/arm-none-eabi/4.8.4/../../../../arm-none-eabi/lib/libg_s.a(lib_a-findfp.o)
                0x0303cfe8                __sinit
 .text.__sfp    0x0303d08c       0xd8 /usr/bin/../lib/gcc/arm-none-eabi/4.8.4/../../../../arm-none-eabi/lib/libg_s.a(lib_a-findfp.o)
                0x0303d08c                __sfp
 .text.__sfp_lock_acquire
                0x0303d164        0x4 /usr/bin/../lib/gcc/arm-none-eabi/4.8.4/../../../../arm-none-eabi/lib/libg_s.a(lib_a-findfp.o)
                0x0303d164                __sfp_lock_acquire
 .text.__sfp_lock_release
                0x0303d168        0x4 /usr/bin/../lib/gcc/arm-none-eabi/4.8.4/../../../../arm-none-eabi/lib/libg_s.a(lib_a-findfp.o)
                0x0303d168                __sfp_lock_release
 .text.__sinit_lock_acquire
                0x0303d16c        0x4 /usr/bin/../lib/gcc/arm-none-eabi/4.8.4/../../../../arm-none-eabi/lib/libg_s.a(lib_a-findfp.o)
                0x0303d16c                __sinit_lock_acquire
 .text.__sinit_lock_release
                0x0303d170        0x4 /usr/bin/../lib/gcc/arm-none-eabi/4.8.4/../../../../arm-none-eabi/lib/libg_s.a(lib_a-findfp.o)
                0x0303d170                __sinit_lock_release
 .text.__fp_lock_all
                0x0303d174       0x24 /usr/bin/../lib/gcc/arm-none-eabi/4.8.4/../../../../arm-none-eabi/lib/libg_s.a(lib_a-findfp.o)
                0x0303d174                __fp_lock_all
 .text.__fp_unlock_all
                0x0303d198       0x24 /usr/bin/../lib/gcc/arm-none-eabi/4.8.4/../../../../arm-none-eabi/lib/libg_s.a(lib_a-findfp.o)
                0x0303d198                __fp_unlock_all
 .text          0x0303d1bc        0x0 /usr/bin/../lib/gcc/arm-none-eabi/4.8.4/../../../../arm-none-eabi/lib/libg_s.a(lib_a-fprintf.o)
 .text._fprintf_r
                0x0303d1bc       0x28 /usr/bin/../lib/gcc/arm-none-eabi/4.8.4/../../../../arm-none-eabi/lib/libg_s.a(lib_a-fprintf.o)
                0x0303d1bc                _fprintf_r
                0x0303d1bc                _fiprintf_r
 .text.fprintf  0x0303d1e4       0x38 /usr/bin/../lib/gcc/arm-none-eabi/4.8.4/../../../../arm-none-eabi/lib/libg_s.a(lib_a-fprintf.o)
                0x0303d1e4                fprintf
                0x0303d1e4                fiprintf
 .text          0x0303d21c        0x0 /usr/bin/../lib/gcc/arm-none-eabi/4.8.4/../../../../arm-none-eabi/lib/libg_s.a(lib_a-fwalk.o)
 .text._fwalk   0x0303d21c       0x6c /usr/bin/../lib/gcc/arm-none-eabi/4.8.4/../../../../arm-none-eabi/lib/libg_s.a(lib_a-fwalk.o)
                0x0303d21c                _fwalk
 .text._fwalk_reent
                0x0303d288       0x74 /usr/bin/../lib/gcc/arm-none-eabi/4.8.4/../../../../arm-none-eabi/lib/libg_s.a(lib_a-fwalk.o)
                0x0303d288                _fwalk_reent
 .text          0x0303d2fc        0x0 /usr/bin/../lib/gcc/arm-none-eabi/4.8.4/../../../../arm-none-eabi/lib/libg_s.a(lib_a-nano-reallocr.o)
 .text._realloc_r
                0x0303d2fc       0x7c /usr/bin/../lib/gcc/arm-none-eabi/4.8.4/../../../../arm-none-eabi/lib/libg_s.a(lib_a-nano-reallocr.o)
                0x0303d2fc                _realloc_r
 .text          0x0303d378        0x0 /usr/bin/../lib/gcc/arm-none-eabi/4.8.4/../../../../arm-none-eabi/lib/libg_s.a(lib_a-reent.o)
 .text.cleanup_glue
                0x0303d378       0x2c /usr/bin/../lib/gcc/arm-none-eabi/4.8.4/../../../../arm-none-eabi/lib/libg_s.a(lib_a-reent.o)
                0x0303d378                cleanup_glue
 .text._reclaim_reent
                0x0303d3a4      0x148 /usr/bin/../lib/gcc/arm-none-eabi/4.8.4/../../../../arm-none-eabi/lib/libg_s.a(lib_a-reent.o)
                0x0303d3a4                _reclaim_reent
 .text          0x0303d4ec        0x0 /usr/bin/../lib/gcc/arm-none-eabi/4.8.4/../../../../arm-none-eabi/lib/libg_s.a(lib_a-stdio.o)
 .text.__sread  0x0303d4ec       0x34 /usr/bin/../lib/gcc/arm-none-eabi/4.8.4/../../../../arm-none-eabi/lib/libg_s.a(lib_a-stdio.o)
                0x0303d4ec                __sread
 .text.__seofread
                0x0303d520        0x8 /usr/bin/../lib/gcc/arm-none-eabi/4.8.4/../../../../arm-none-eabi/lib/libg_s.a(lib_a-stdio.o)
                0x0303d520                __seofread
 .text.__swrite
                0x0303d528       0x54 /usr/bin/../lib/gcc/arm-none-eabi/4.8.4/../../../../arm-none-eabi/lib/libg_s.a(lib_a-stdio.o)
                0x0303d528                __swrite
 .text.__sseek  0x0303d57c       0x34 /usr/bin/../lib/gcc/arm-none-eabi/4.8.4/../../../../arm-none-eabi/lib/libg_s.a(lib_a-stdio.o)
                0x0303d57c                __sseek
 .text.__sclose
                0x0303d5b0       0x14 /usr/bin/../lib/gcc/arm-none-eabi/4.8.4/../../../../arm-none-eabi/lib/libg_s.a(lib_a-stdio.o)
                0x0303d5b0                __sclose
 .text          0x0303d5c4        0x0 /usr/bin/../lib/gcc/arm-none-eabi/4.8.4/../../../../arm-none-eabi/lib/libg_s.a(lib_a-vfprintf.o)
 .text.__sfputc_r
                0x0303d5c4       0x54 /usr/bin/../lib/gcc/arm-none-eabi/4.8.4/../../../../arm-none-eabi/lib/libg_s.a(lib_a-vfprintf.o)
 .text.__sfputs_r
                0x0303d618       0x44 /usr/bin/../lib/gcc/arm-none-eabi/4.8.4/../../../../arm-none-eabi/lib/libg_s.a(lib_a-vfprintf.o)
                0x0303d618                __sfputs_r
 .text.__sprint_r
                0x0303d65c       0x34 /usr/bin/../lib/gcc/arm-none-eabi/4.8.4/../../../../arm-none-eabi/lib/libg_s.a(lib_a-vfprintf.o)
                0x0303d65c                __sprint_r
 .text._vfprintf_r
                0x0303d690      0x344 /usr/bin/../lib/gcc/arm-none-eabi/4.8.4/../../../../arm-none-eabi/lib/libg_s.a(lib_a-vfprintf.o)
                0x0303d690                _vfiprintf_r
                0x0303d690                _vfprintf_r
 .text.vfprintf
                0x0303d9d4       0x2c /usr/bin/../lib/gcc/arm-none-eabi/4.8.4/../../../../arm-none-eabi/lib/libg_s.a(lib_a-vfprintf.o)
                0x0303d9d4                vfiprintf
                0x0303d9d4                vfprintf
 .text          0x0303da00        0x0 /usr/bin/../lib/gcc/arm-none-eabi/4.8.4/../../../../arm-none-eabi/lib/libg_s.a(lib_a-vfprintf_i.o)
 .text._printf_common
                0x0303da00      0x16c /usr/bin/../lib/gcc/arm-none-eabi/4.8.4/../../../../arm-none-eabi/lib/libg_s.a(lib_a-vfprintf_i.o)
                0x0303da00                _printf_common
 .text._printf_i
                0x0303db6c      0x3c8 /usr/bin/../lib/gcc/arm-none-eabi/4.8.4/../../../../arm-none-eabi/lib/libg_s.a(lib_a-vfprintf_i.o)
                0x0303db6c                _printf_i
 .text          0x0303df34        0x0 /usr/bin/../lib/gcc/arm-none-eabi/4.8.4/../../../../arm-none-eabi/lib/libg_s.a(lib_a-wbuf.o)
 .text.__swbuf_r
                0x0303df34      0x128 /usr/bin/../lib/gcc/arm-none-eabi/4.8.4/../../../../arm-none-eabi/lib/libg_s.a(lib_a-wbuf.o)
                0x0303df34                __swbuf_r
 .text.__swbuf  0x0303e05c       0x1c /usr/bin/../lib/gcc/arm-none-eabi/4.8.4/../../../../arm-none-eabi/lib/libg_s.a(lib_a-wbuf.o)
                0x0303e05c                __swbuf
 .text          0x0303e078        0x0 /usr/bin/../lib/gcc/arm-none-eabi/4.8.4/../../../../arm-none-eabi/lib/libg_s.a(lib_a-writer.o)
 .text._write_r
                0x0303e078       0x44 /usr/bin/../lib/gcc/arm-none-eabi/4.8.4/../../../../arm-none-eabi/lib/libg_s.a(lib_a-writer.o)
                0x0303e078                _write_r
 .text          0x0303e0bc        0x0 /usr/bin/../lib/gcc/arm-none-eabi/4.8.4/../../../../arm-none-eabi/lib/libg_s.a(lib_a-wsetup.o)
 .text.__swsetup_r
                0x0303e0bc      0x164 /usr/bin/../lib/gcc/arm-none-eabi/4.8.4/../../../../arm-none-eabi/lib/libg_s.a(lib_a-wsetup.o)
                0x0303e0bc                __swsetup_r
 .text          0x0303e220        0x0 /usr/bin/../lib/gcc/arm-none-eabi/4.8.4/../../../../arm-none-eabi/lib/libg_s.a(lib_a-closer.o)
 .text._close_r
                0x0303e220       0x3c /usr/bin/../lib/gcc/arm-none-eabi/4.8.4/../../../../arm-none-eabi/lib/libg_s.a(lib_a-closer.o)
                0x0303e220                _close_r
 .text          0x0303e25c        0x0 /usr/bin/../lib/gcc/arm-none-eabi/4.8.4/../../../../arm-none-eabi/lib/libg_s.a(lib_a-fflush.o)
 .text.__sflush_r
                0x0303e25c      0x1ec /usr/bin/../lib/gcc/arm-none-eabi/4.8.4/../../../../arm-none-eabi/lib/libg_s.a(lib_a-fflush.o)
                0x0303e25c                __sflush_r
 .text._fflush_r
                0x0303e448       0x88 /usr/bin/../lib/gcc/arm-none-eabi/4.8.4/../../../../arm-none-eabi/lib/libg_s.a(lib_a-fflush.o)
                0x0303e448                _fflush_r
 .text.fflush   0x0303e4d0       0x40 /usr/bin/../lib/gcc/arm-none-eabi/4.8.4/../../../../arm-none-eabi/lib/libg_s.a(lib_a-fflush.o)
                0x0303e4d0                fflush
 .text          0x0303e510        0x0 /usr/bin/../lib/gcc/arm-none-eabi/4.8.4/../../../../arm-none-eabi/lib/libg_s.a(lib_a-fvwrite.o)
 .text.__sfvwrite_r
                0x0303e510      0x458 /usr/bin/../lib/gcc/arm-none-eabi/4.8.4/../../../../arm-none-eabi/lib/libg_s.a(lib_a-fvwrite.o)
                0x0303e510                __sfvwrite_r
 .text          0x0303e968        0x0 /usr/bin/../lib/gcc/arm-none-eabi/4.8.4/../../../../arm-none-eabi/lib/libg_s.a(lib_a-lseekr.o)
 .text._lseek_r
                0x0303e968       0x44 /usr/bin/../lib/gcc/arm-none-eabi/4.8.4/../../../../arm-none-eabi/lib/libg_s.a(lib_a-lseekr.o)
                0x0303e968                _lseek_r
 .text          0x0303e9ac        0x0 /usr/bin/../lib/gcc/arm-none-eabi/4.8.4/../../../../arm-none-eabi/lib/libg_s.a(lib_a-makebuf.o)
 .text.__smakebuf_r
                0x0303e9ac       0xf8 /usr/bin/../lib/gcc/arm-none-eabi/4.8.4/../../../../arm-none-eabi/lib/libg_s.a(lib_a-makebuf.o)
                0x0303e9ac                __smakebuf_r
 .text          0x0303eaa4        0x0 /usr/bin/../lib/gcc/arm-none-eabi/4.8.4/../../../../arm-none-eabi/lib/libg_s.a(lib_a-memchr-stub.o)
 .text.memchr   0x0303eaa4       0x34 /usr/bin/../lib/gcc/arm-none-eabi/4.8.4/../../../../arm-none-eabi/lib/libg_s.a(lib_a-memchr-stub.o)
                0x0303eaa4                memchr
 .text          0x0303ead8        0x0 /usr/bin/../lib/gcc/arm-none-eabi/4.8.4/../../../../arm-none-eabi/lib/libg_s.a(lib_a-nano-msizer.o)
 .text._malloc_usable_size_r
                0x0303ead8       0x1c /usr/bin/../lib/gcc/arm-none-eabi/4.8.4/../../../../arm-none-eabi/lib/libg_s.a(lib_a-nano-msizer.o)
                0x0303ead8                _malloc_usable_size_r
 .text          0x0303eaf4        0x0 /usr/bin/../lib/gcc/arm-none-eabi/4.8.4/../../../../arm-none-eabi/lib/libg_s.a(lib_a-readr.o)
 .text._read_r  0x0303eaf4       0x44 /usr/bin/../lib/gcc/arm-none-eabi/4.8.4/../../../../arm-none-eabi/lib/libg_s.a(lib_a-readr.o)
                0x0303eaf4                _read_r
 .text          0x0303eb38        0x0 /usr/bin/../lib/gcc/arm-none-eabi/4.8.4/../../../../arm-none-eabi/lib/libg_s.a(lib_a-fstatr.o)
 .text._fstat_r
                0x0303eb38       0x40 /usr/bin/../lib/gcc/arm-none-eabi/4.8.4/../../../../arm-none-eabi/lib/libg_s.a(lib_a-fstatr.o)
                0x0303eb38                _fstat_r
 .text          0x0303eb78        0x0 /usr/bin/../lib/gcc/arm-none-eabi/4.8.4/../../../../arm-none-eabi/lib/libg_s.a(lib_a-isattyr.o)
 .text._isatty_r
                0x0303eb78       0x3c /usr/bin/../lib/gcc/arm-none-eabi/4.8.4/../../../../arm-none-eabi/lib/libg_s.a(lib_a-isattyr.o)
                0x0303eb78                _isatty_r
 .text          0x0303ebb4        0x0 /usr/bin/../lib/gcc/arm-none-eabi/4.8.4/../../../../arm-none-eabi/lib/libnosys.a(close.o)
 .text._close   0x0303ebb4       0x18 /usr/bin/../lib/gcc/arm-none-eabi/4.8.4/../../../../arm-none-eabi/lib/libnosys.a(close.o)
                0x0303ebb4                _close
 .text          0x0303ebcc        0x0 /usr/bin/../lib/gcc/arm-none-eabi/4.8.4/../../../../arm-none-eabi/lib/libnosys.a(fstat.o)
 .text._fstat   0x0303ebcc       0x18 /usr/bin/../lib/gcc/arm-none-eabi/4.8.4/../../../../arm-none-eabi/lib/libnosys.a(fstat.o)
                0x0303ebcc                _fstat
 .text          0x0303ebe4        0x0 /usr/bin/../lib/gcc/arm-none-eabi/4.8.4/../../../../arm-none-eabi/lib/libnosys.a(isatty.o)
 .text._isatty  0x0303ebe4       0x18 /usr/bin/../lib/gcc/arm-none-eabi/4.8.4/../../../../arm-none-eabi/lib/libnosys.a(isatty.o)
                0x0303ebe4                _isatty
 .text          0x0303ebfc        0x0 /usr/bin/../lib/gcc/arm-none-eabi/4.8.4/../../../../arm-none-eabi/lib/libnosys.a(lseek.o)
 .text._lseek   0x0303ebfc       0x18 /usr/bin/../lib/gcc/arm-none-eabi/4.8.4/../../../../arm-none-eabi/lib/libnosys.a(lseek.o)
                0x0303ebfc                _lseek
 .text          0x0303ec14        0x0 /usr/bin/../lib/gcc/arm-none-eabi/4.8.4/../../../../arm-none-eabi/lib/libnosys.a(read.o)
 .text._read    0x0303ec14       0x18 /usr/bin/../lib/gcc/arm-none-eabi/4.8.4/../../../../arm-none-eabi/lib/libnosys.a(read.o)
                0x0303ec14                _read
 .text          0x0303ec2c        0x0 /usr/bin/../lib/gcc/arm-none-eabi/4.8.4/../../../../arm-none-eabi/lib/libnosys.a(write.o)
 .text._write   0x0303ec2c       0x18 /usr/bin/../lib/gcc/arm-none-eabi/4.8.4/../../../../arm-none-eabi/lib/libnosys.a(write.o)
                0x0303ec2c                _write
 *(EXCLUDE_FILE(icomlib.a:ssv_lib.o icomlib.a:sha256.o icomlib.a:sha384.o icomlib.a:sha512.o icomlib.a:pstmsqrcomba.o icomlib.a:pstmmulcomba.o icomlib.a:pstmmonreduce.o icomlib.a:pstm.o icomlib.a:aes.o icomlib.a:sha1ssl.o contikilib.a:socket_driver.o icomlib.a:powersave.o icomlib.a:hw_regs_api.o icomlib.a:flash_api.o icomlib.a:drv_flash.o icomlib.a:xmem.o icomlib.a:soft_ap.o icomlib.a:debug-uart.o icomlib.a:printf.o icomlib.a:rate_control.o icomlib.a:ssv6200_tx.o icomlib.a:ssv6200_rx.o icomlib.a:ssvradio.o icomlib.a:drv_pktbuf.o icomlib.a:packetbuf.o icomlib.a:ieee80211_rdc.o icomlib.a:ieee80211_net.o contikilib.a:tcpip.o icomlib.a:etimer.o icomlib.a:clock.o icomlib.a:timer.o contikilib.a:uip-split.o contikilib.a:uip.o icomlib.a:boot-hiflying.o /usr/bin/../lib/gcc/arm-none-eabi/4.8.4/libgcc.a:_udivsi3.o /usr/bin/../lib/gcc/arm-none-eabi/4.8.4/libgcc.a:_divsi3.o /usr/bin/../lib/gcc/arm-none-eabi/4.8.4/libgcc.a:_dvmd_tls.o /usr/bin/../lib/gcc/arm-none-eabi/4.8.4/libgcc.a:_udivdi3.o /usr/bin/../lib/gcc/arm-none-eabi/4.8.4/libgcc.a:bpabi.o /usr/bin/../lib/gcc/arm-none-eabi/4.8.4/libgcc.a:_divdi3.o /usr/bin/../lib/gcc/arm-none-eabi/4.8.4/libgcc.a:_aeabi_uldivmod.o) .text.*)
 *(EXCLUDE_FILE(icomlib.a:ssv_lib.o icomlib.a:sha256.o icomlib.a:sha384.o icomlib.a:sha512.o icomlib.a:pstmsqrcomba.o icomlib.a:pstmmulcomba.o icomlib.a:pstmmonreduce.o icomlib.a:pstm.o icomlib.a:aes.o icomlib.a:sha1ssl.o contikilib.a:socket_driver.o icomlib.a:powersave.o icomlib.a:hw_regs_api.o icomlib.a:flash_api.o icomlib.a:drv_flash.o icomlib.a:xmem.o icomlib.a:soft_ap.o icomlib.a:debug-uart.o icomlib.a:printf.o icomlib.a:rate_control.o icomlib.a:ssv6200_tx.o icomlib.a:ssv6200_rx.o icomlib.a:ssvradio.o icomlib.a:drv_pktbuf.o icomlib.a:packetbuf.o icomlib.a:ieee80211_rdc.o icomlib.a:ieee80211_net.o contikilib.a:tcpip.o icomlib.a:etimer.o icomlib.a:clock.o icomlib.a:timer.o contikilib.a:uip-split.o contikilib.a:uip.o icomlib.a:boot-hiflying.o /usr/bin/../lib/gcc/arm-none-eabi/4.8.4/libgcc.a:_udivsi3.o /usr/bin/../lib/gcc/arm-none-eabi/4.8.4/libgcc.a:_divsi3.o /usr/bin/../lib/gcc/arm-none-eabi/4.8.4/libgcc.a:_dvmd_tls.o /usr/bin/../lib/gcc/arm-none-eabi/4.8.4/libgcc.a:_udivdi3.o /usr/bin/../lib/gcc/arm-none-eabi/4.8.4/libgcc.a:bpabi.o /usr/bin/../lib/gcc/arm-none-eabi/4.8.4/libgcc.a:_divdi3.o /usr/bin/../lib/gcc/arm-none-eabi/4.8.4/libgcc.a:_aeabi_uldivmod.o) .rodata)
 .rodata        0x0303ec44       0x3c icomlib.a(contiki-main.o)
 .rodata        0x0303ec80       0x14 icomlib.a(systemconf.o)
 .rodata        0x0303ec94        0x6 icomlib.a(ieee80211_mac.o)
 .rodata        0x0303ec9a        0xe icomapps.a(szcloud_intf.o)
 .rodata        0x0303eca8        0x7 icomlib.a(x509.o)
 .rodata        0x0303ecaf        0xe ./thirdPartyLib/libdtlib.a(dt_mqtt.o)
 *(EXCLUDE_FILE(icomlib.a:ssv_lib.o icomlib.a:sha256.o icomlib.a:sha384.o icomlib.a:sha512.o icomlib.a:pstmsqrcomba.o icomlib.a:pstmmulcomba.o icomlib.a:pstmmonreduce.o icomlib.a:pstm.o icomlib.a:aes.o icomlib.a:sha1ssl.o contikilib.a:socket_driver.o icomlib.a:powersave.o icomlib.a:hw_regs_api.o icomlib.a:flash_api.o icomlib.a:drv_flash.o icomlib.a:xmem.o icomlib.a:soft_ap.o icomlib.a:debug-uart.o icomlib.a:printf.o icomlib.a:rate_control.o icomlib.a:ssv6200_tx.o icomlib.a:ssv6200_rx.o icomlib.a:ssvradio.o icomlib.a:drv_pktbuf.o icomlib.a:packetbuf.o icomlib.a:ieee80211_rdc.o icomlib.a:ieee80211_net.o contikilib.a:tcpip.o icomlib.a:etimer.o icomlib.a:clock.o icomlib.a:timer.o contikilib.a:uip-split.o contikilib.a:uip.o icomlib.a:boot-hiflying.o /usr/bin/../lib/gcc/arm-none-eabi/4.8.4/libgcc.a:_udivsi3.o /usr/bin/../lib/gcc/arm-none-eabi/4.8.4/libgcc.a:_divsi3.o /usr/bin/../lib/gcc/arm-none-eabi/4.8.4/libgcc.a:_dvmd_tls.o /usr/bin/../lib/gcc/arm-none-eabi/4.8.4/libgcc.a:_udivdi3.o /usr/bin/../lib/gcc/arm-none-eabi/4.8.4/libgcc.a:bpabi.o /usr/bin/../lib/gcc/arm-none-eabi/4.8.4/libgcc.a:_divdi3.o /usr/bin/../lib/gcc/arm-none-eabi/4.8.4/libgcc.a:_aeabi_uldivmod.o) .rodata*)
 *fill*         0x0303ecbd        0x3 
 .rodata.autostart_processes
                0x0303ecc0       0x20 ssv6060-main.o
                0x0303ecc0                autostart_processes
 .rodata.str1.1
                0x0303ece0      0x170 ssv6060-main.o
                                0x175 (size before relaxing)
 .rodata.str1.1
                0x0303ee50       0x95 icomlib.a(contiki-main.o)
                                 0x99 (size before relaxing)
 *fill*         0x0303eee5        0x3 
 .rodata.uarts  0x0303eee8        0x8 icomlib.a(drv_uart.o)
 .rodata.asic_rf_setting
                0x0303eef0      0x1b0 icomlib.a(hw_init.o)
 .rodata.vt_tbl
                0x0303f0a0       0xc4 icomlib.a(hw_init.o)
 .rodata.__FUNCTION__.8041
                0x0303f164       0x14 icomlib.a(hw_init.o)
 .rodata.str1.1
                0x0303f178       0xf7 icomlib.a(hw_init.o)
 *fill*         0x0303f26f        0x1 
 .rodata.phy_setting
                0x0303f270      0x6f0 icomlib.a(hw_init.o)
 .rodata.__func__.7490
                0x0303f960       0x19 icomlib.a(systemconf.o)
 .rodata.str1.1
                0x0303f979      0x11a icomlib.a(systemconf.o)
 .rodata.__func__.7479
                0x0303fa93       0x18 icomlib.a(systemconf.o)
 .rodata.__func__.7485
                0x0303faab       0x19 icomlib.a(systemconf.o)
 .rodata.str1.1
                0x0303fac4       0x26 icomlib.a(wdog_api.o)
 *fill*         0x0303faea        0x2 
 .rodata.ivv_smart
                0x0303faec       0x10 icomlib.a(smartSetting.o)
                0x0303faec                ivv_smart
 .rodata.str1.1
                0x0303fafc       0x90 icomlib.a(smartSetting.o)
 .rodata.str1.1
                0x0303fb8c      0x16f icomlib.a(smartConf.o)
                                0x175 (size before relaxing)
 .rodata.str1.1
                0x0303fcfb       0x28 icomlib.a(bsp.o)
 .rodata.str1.1
                0x0303fd23       0x19 icomlib.a(crypthw.o)
 .rodata.asic_rf_setting
                0x0303fd3c      0x1b0 icomlib.a(dbg-atcmd-api.o)
 .rodata.CSWTCH.97
                0x0303feec       0x28 icomlib.a(dbg-atcmd-api.o)
 .rodata.str1.1
                0x0303ff14      0x899 icomlib.a(dbg-atcmd-api.o)
                                0x8c3 (size before relaxing)
 *fill*         0x030407ad        0x3 
 .rodata.RADIO_OP
                0x030407b0       0xd4 icomlib.a(dbg-atcmd-api.o)
 .rodata.CSWTCH.100
                0x03040884        0xe icomlib.a(dbg-atcmd-api.o)
 *fill*         0x03040892        0x2 
 .rodata.phy_setting
                0x03040894      0x6f0 icomlib.a(dbg-atcmd-api.o)
 .rodata.tssi_tbl_gain
                0x03040f84       0x24 icomlib.a(drv_phy.o)
                0x03040f84                tssi_tbl_gain
 .rodata.phy_cali_config_rxrc
                0x03040fa8       0x14 icomlib.a(drv_phy.o)
                0x03040fa8                phy_cali_config_rxrc
 .rodata.rfreg_tbl_papd_bypa_lievb
                0x03040fbc       0x48 icomlib.a(drv_phy.o)
 .rodata.papd_tbl_x
                0x03041004       0x34 icomlib.a(drv_phy.o)
 .rodata.rfreg_tbl_txlo
                0x03041038       0x38 icomlib.a(drv_phy.o)
 .rodata.rfreg_tbl_papd_bypa_limpb
                0x03041070       0x48 icomlib.a(drv_phy.o)
 .rodata.phyreg_tbl_init
                0x030410b8      0x6f8 icomlib.a(drv_phy.o)
 .rodata.rfreg_tbl_papd_bypa_hp
                0x030417b0       0x48 icomlib.a(drv_phy.o)
 .rodata.phy_cali_config_tssi
                0x030417f8       0x14 icomlib.a(drv_phy.o)
                0x030417f8                phy_cali_config_tssi
 .rodata.str1.1
                0x0304180c       0x3e icomlib.a(drv_phy.o)
 *fill*         0x0304184a        0x2 
 .rodata.phy_cali_config_txiq
                0x0304184c       0x14 icomlib.a(drv_phy.o)
                0x0304184c                phy_cali_config_txiq
 .rodata.rfreg_tbl_config_bypa
                0x03041860       0x20 icomlib.a(drv_phy.o)
 .rodata.rfreg_tbl_papd_bypa_def
                0x03041880       0x48 icomlib.a(drv_phy.o)
 .rodata.rfreg_tbl_rxrck
                0x030418c8       0x38 icomlib.a(drv_phy.o)
 .rodata.rfreg_tbl_rxdck
                0x03041900       0x38 icomlib.a(drv_phy.o)
 .rodata.phy_cali_config_txlo
                0x03041938       0x14 icomlib.a(drv_phy.o)
                0x03041938                phy_cali_config_txlo
 .rodata.rfreg_tbl_init
                0x0304194c      0x188 icomlib.a(drv_phy.o)
 .rodata.phy_cali_config_rxiq
                0x03041ad4       0x14 icomlib.a(drv_phy.o)
                0x03041ad4                phy_cali_config_rxiq
 .rodata.phy_cali_config_rxdc
                0x03041ae8       0x14 icomlib.a(drv_phy.o)
                0x03041ae8                phy_cali_config_rxdc
 .rodata.rfreg_tbl_config_byxtal
                0x03041afc      0x108 icomlib.a(drv_phy.o)
 .rodata.rfreg_tbl_txiqk
                0x03041c04       0x38 icomlib.a(drv_phy.o)
 .rodata.rfreg_tbl_tssi
                0x03041c3c       0x38 icomlib.a(drv_phy.o)
 .rodata.phyreg_tbl_papd
                0x03041c74       0x38 icomlib.a(drv_phy.o)
 .rodata.rfreg_tbl_rxiqk
                0x03041cac       0x38 icomlib.a(drv_phy.o)
 .rodata.str1.1
                0x03041ce4      0x4dd icomlib.a(drv_pktbuf_slow)
                                0x4df (size before relaxing)
 .rodata.__func__.4764
                0x030421c1       0x16 icomlib.a(drv_pktbuf_slow)
 .rodata.__func__.8303
                0x030421d7       0x1b icomlib.a(ieee80211_mgmt.)
 .rodata.__func__.8472
                0x030421f2       0x13 icomlib.a(ieee80211_mgmt.)
 .rodata.__func__.8311
                0x03042205       0x1b icomlib.a(ieee80211_mgmt.)
 .rodata.__func__.8320
                0x03042220       0x18 icomlib.a(ieee80211_mgmt.)
 .rodata.__func__.8331
                0x03042238       0x13 icomlib.a(ieee80211_mgmt.)
 .rodata.__func__.8296
                0x0304224b        0xd icomlib.a(ieee80211_mgmt.)
 .rodata.__func__.8550
                0x03042258       0x25 icomlib.a(ieee80211_mgmt.)
 .rodata.__func__.8338
                0x0304227d       0x15 icomlib.a(ieee80211_mgmt.)
 .rodata.str1.1
                0x03042292      0x593 icomlib.a(ieee80211_mgmt.)
                                0x5c3 (size before relaxing)
 .rodata.__func__.8533
                0x03042825       0x1e icomlib.a(ieee80211_mgmt.)
 .rodata.__func__.8468
                0x03042843       0x11 icomlib.a(ieee80211_mgmt.)
 .rodata.__func__.8345
                0x03042854       0x11 icomlib.a(ieee80211_mgmt.)
 .rodata.str1.1
                0x03042865      0x1f9 icomlib.a(wpa.o)
 .rodata.str1.1
                0x03042a5e       0x50 icomlib.a(sys_status_api.)
 .rodata.str1.1
                0x03042aae       0x5f icomlib.a(wep.o)
 .rodata.str1.1
                0x03042b0d       0x46 icomlib.a(process.o)
 .rodata.str1.1
                0x03042b53       0x89 icomlib.a(atcmdlib.o)
                                 0x9f (size before relaxing)
 .rodata.str1.1
                0x03042bdc     0x17ae icomlib.a(atcmd_icomm.o)
                               0x17f2 (size before relaxing)
 .rodata.str1.1
                0x0304438a        0x2 icomlib.a(drv_pmu.o)
                                  0x6 (size before relaxing)
 .rodata.tbl_pmu_pad_cfg
                0x0304438c      0x1a0 icomlib.a(drv_pmu.o)
                0x0304438c                tbl_pmu_pad_cfg
 .rodata.str1.1
                0x0304452c       0x4e icomlib.a(fence.o)
 .rodata.broadcast_ethaddr.8535
                0x0304457a        0x6 icomlib.a(smartComm.o)
 .rodata.str1.1
                0x03044580       0xe5 icomlib.a(smartComm.o)
 .rodata.broadcast_ethaddr.8539
                0x03044665        0x6 icomlib.a(smartComm.o)
 .rodata.str1.1
                0x0304466b       0x92 icomlib.a(ssv_lib_slow.o)
                                 0xac (size before relaxing)
 .rodata.str1.1
                0x030446fd       0xe4 icomlib.a(userSmart.o)
                                0x107 (size before relaxing)
 .rodata.__func__.7187
                0x030447e1       0x10 icomlib.a(ieee80211_mac.o)
 .rodata.broadcast_ethaddr
                0x030447f1        0x6 icomlib.a(ieee80211_mac.o)
 .rodata.__func__.7173
                0x030447f7        0xc icomlib.a(ieee80211_mac.o)
 .rodata.str1.1
                0x03044803       0x6c icomlib.a(ieee80211_mac.o)
                                 0x96 (size before relaxing)
 .rodata.__func__.7179
                0x0304486f        0xa icomlib.a(ieee80211_mac.o)
 *fill*         0x03044879        0x3 
 .rodata.ieee80211_mac
                0x0304487c       0x1c icomlib.a(ieee80211_mac.o)
                0x0304487c                ieee80211_mac
 .rodata.str1.1
                0x00000000        0x5 icomlib.a(shell-ping.o)
 .rodata.str1.1
                0x03044898      0x198 icomlib.a(drv_gpio.o)
 .rodata.str1.1
                0x03044a30      0x122 icomlib.a(EAPOL.o)
 .rodata.str1.1
                0x03044b52      0x1b7 icomapps.a(atcmd_mqtt.o)
                                0x1cd (size before relaxing)
 .rodata.__func__.10002
                0x03044d09       0x10 icomapps.a(atcmd.o)
 .rodata.__func__.9911
                0x03044d19        0xf icomapps.a(atcmd.o)
 .rodata.__func__.10018
                0x03044d28        0xf icomapps.a(atcmd.o)
 .rodata.__func__.9741
                0x03044d37       0x15 icomapps.a(atcmd.o)
 .rodata.__func__.9746
                0x03044d4c       0x13 icomapps.a(atcmd.o)
 .rodata.str1.1
                0x03044d5f      0xd1b icomapps.a(atcmd.o)
                               0x109c (size before relaxing)
 .rodata.__func__.9916
                0x03045a7a       0x14 icomapps.a(atcmd.o)
 .rodata.__func__.9773
                0x03045a8e       0x12 icomapps.a(atcmd.o)
 .rodata.dataRateMapping
                0x03045aa0       0x9c icomapps.a(atcmd.o)
 .rodata.__func__.9777
                0x03045b3c       0x11 icomapps.a(atcmd.o)
 *fill*         0x03045b4d        0x3 
 .rodata.CSWTCH.123
                0x03045b50       0x10 icomapps.a(atcmd.o)
 .rodata.CSWTCH.121
                0x03045b60       0x14 icomapps.a(atcmd.o)
 .rodata.__func__.9986
                0x03045b74        0xf icomapps.a(atcmd.o)
 .rodata.str1.1
                0x03045b83      0x6da icomapps.a(bsp_info.o)
                                0x737 (size before relaxing)
 *fill*         0x0304625d        0x1 
 .rodata.pool_blk_size_array
                0x0304625e        0xe icomapps.a(data_buff.o)
 .rodata.str1.1
                0x0304626c      0x2c4 icomapps.a(data_buff.o)
                                0x2f7 (size before relaxing)
 .rodata.str1.1
                0x03046530       0xf6 icomapps.a(hx_sta_conn.o)
 .rodata.str1.1
                0x03046626       0x69 icomapps.a(key.o)
                                 0x6b (size before relaxing)
 .rodata.str1.1
                0x0304668f      0x1a9 icomapps.a(MyATCmd.o)
                                0x1d8 (size before relaxing)
 .rodata.S_IOMap
                0x03046838       0x30 icomapps.a(MyThread.o)
 .rodata.str1.1
                0x03046868      0x137 icomapps.a(MyThread.o)
                                0x13f (size before relaxing)
 .rodata.http_http
                0x0304699f        0x8 icomapps.a(ota_api.o)
                0x0304699f                http_http
 .rodata.http_content_type_binary
                0x030469a7       0x2b icomapps.a(ota_api.o)
                0x030469a7                http_content_type_binary
 .rodata.http_location
                0x030469d2        0xb icomapps.a(ota_api.o)
                0x030469d2                http_location
 .rodata.http_301
                0x030469dd        0x5 icomapps.a(ota_api.o)
                0x030469dd                http_301
 .rodata.http_302
                0x030469e2        0x5 icomapps.a(ota_api.o)
                0x030469e2                http_302
 .rodata.http_crnl
                0x030469e7        0x3 icomapps.a(ota_api.o)
                0x030469e7                http_crnl
 .rodata.str1.1
                0x030469ea      0x5c4 icomapps.a(ota_api.o)
                                0x632 (size before relaxing)
 .rodata.http_content_length
                0x03046fae       0x11 icomapps.a(ota_api.o)
                0x03046fae                http_content_length
 .rodata.http_200
                0x03046fbf        0x5 icomapps.a(ota_api.o)
                0x03046fbf                http_200
 .rodata.http_400
                0x03046fc4        0x5 icomapps.a(ota_api.o)
                0x03046fc4                http_400
 .rodata.http_10
                0x03046fc9        0x9 icomapps.a(ota_api.o)
                0x03046fc9                http_10
 .rodata.http_11
                0x03046fd2        0x9 icomapps.a(ota_api.o)
                0x03046fd2                http_11
 .rodata.http_404
                0x03046fdb        0x5 icomapps.a(ota_api.o)
                0x03046fdb                http_404
 .rodata.http_content_type
                0x03046fe0        0xf icomapps.a(ota_api.o)
                0x03046fe0                http_content_type
 .rodata.http_host
                0x03046fef        0x7 icomapps.a(ota_api.o)
                0x03046fef                http_host
 .rodata.str1.1
                0x03046ff6      0x23a icomapps.a(socket_app.o)
                                0x2a9 (size before relaxing)
 .rodata.str1.1
                0x03047230      0x116 icomapps.a(soft_ap_init.o)
                                0x127 (size before relaxing)
 .rodata.__func__.6864
                0x03047346       0x11 icomapps.a(soft_ap_init.o)
 .rodata.R_caHex2Ascii_LC
                0x03047357       0x10 icomapps.a(UAMisc.o)
 .rodata.R_caHex2Ascii
                0x03047367       0x10 icomapps.a(UAMisc.o)
 *fill*         0x03047377        0x1 
 .rodata.S_Ver  0x03047378       0x84 icomapps.a(UAVersion.o)
                0x03047378                S_Ver
 .rodata.str1.1
                0x030473fc      0x1ad icomapps.a(wifi_uart_demo.)
                                0x20c (size before relaxing)
 .rodata.str1.1
                0x030475a9      0x185 icomapps.a(szcloud_intf.o)
                                0x1ee (size before relaxing)
 .rodata.str1.1
                0x0304772e       0xae icomapps.a(szcloud_uart.o)
 .rodata.str1.1
                0x030477dc      0x29b icomapps.a(hx_flash_opt.o)
                                0x2ae (size before relaxing)
 *fill*         0x03047a77        0x1 
 .rodata.bd_str_array
                0x03047a78       0x28 icomapps.a(hx_flash_opt.o)
 .rodata.str1.1
                0x03047aa0      0x128 icomapps.a(net.o)
                                0x12a (size before relaxing)
 .rodata.str1.1
                0x03047bc8       0xb2 icomapps.a(uart.o)
 .rodata.str1.1
                0x03047c7a      0x23e contikilib.a(mqtt.o)
 .rodata.__FUNCTION__.9847
                0x03047eb8       0x11 contikilib.a(mqtt.o)
 .rodata.__FUNCTION__.9841
                0x03047ec9        0xf contikilib.a(mqtt.o)
 .rodata.get_time_net
                0x03047ed8       0x14 contikilib.a(ntp_client.o)
 .rodata.days_in_month.6597
                0x03047eec        0xc contikilib.a(ntp_client.o)
 .rodata.str1.1
                0x03047ef8      0x2c0 contikilib.a(ntp_client.o)
                                0x306 (size before relaxing)
 .rodata.str1.1
                0x030481b8      0x402 contikilib.a(cfs-coffee.o)
 .rodata.str1.1
                0x030485ba       0x4a contikilib.a(dhcp_process.o)
 .rodata.__func__.8038
                0x03048604       0x1e contikilib.a(dhcps.o)
 .rodata.__func__.7993
                0x03048622       0x10 contikilib.a(dhcps.o)
 .rodata.__func__.8121
                0x03048632        0xb contikilib.a(dhcps.o)
 .rodata.magic_cookie
                0x0304863d        0x4 contikilib.a(dhcps.o)
 .rodata.str1.1
                0x03048641      0x463 contikilib.a(dhcps.o)
                                0x4c6 (size before relaxing)
 .rodata.__func__.8116
                0x03048aa4       0x23 contikilib.a(dhcps.o)
 .rodata.__func__.8087
                0x03048ac7        0x9 contikilib.a(dhcps.o)
 .rodata.__func__.7981
                0x03048ad0        0xf contikilib.a(dhcps.o)
 .rodata.__func__.8028
                0x03048adf       0x1a contikilib.a(dhcps.o)
 .rodata.__func__.8004
                0x03048af9        0xf contikilib.a(dhcps.o)
 .rodata.str1.1
                0x03048b08        0xd contikilib.a(resolv.o)
 .rodata.str1.1
                0x03048b15       0x13 contikilib.a(simple-udp.o)
 .rodata.str1.1
                0x03048b28       0x99 contikilib.a(tcp-socket.o)
 .rodata.broadcast_ethaddr
                0x03048bc1        0x6 contikilib.a(uip_arp.o)
 .rodata.str1.1
                0x03048bc7       0x47 contikilib.a(uip_arp.o)
                                 0x5d (size before relaxing)
 .rodata.str1.1
                0x03048c0e      0x1b8 contikilib.a(dhcpc.o)
                                0x1c9 (size before relaxing)
 .rodata.str1.1
                0x03048dc6        0xf icomlib.a(ctimer.o)
 .rodata.str1.1
                0x03048dd5      0x267 icomlib.a(ssl_api.o)
 .rodata.str1.1
                0x00000000        0x3 icomlib.a(osdep.o)
 .rodata.str1.1
                0x0304903c        0xe icomlib.a(tls.o)
                                 0x1c (size before relaxing)
 .rodata.str1.1
                0x0304904a      0x131 icomlib.a(matrixssl.o)
                                0x134 (size before relaxing)
 .rodata.str1.1
                0x0304917b      0x12a icomlib.a(matrixsslApi.o)
                                0x163 (size before relaxing)
 .rodata.str1.1
                0x030492a5       0x6d icomlib.a(sslDecode.o)
                                 0x7e (size before relaxing)
 .rodata.str1.1
                0x03049312       0x7c icomlib.a(sslEncode.o)
                                 0x8d (size before relaxing)
 .rodata.str1.1
                0x0304938e       0x6e icomlib.a(corelib.o)
                                 0x8c (size before relaxing)
 .rodata.str1.1
                0x030493fc       0x5e icomlib.a(hmac.o)
                                 0x6f (size before relaxing)
 .rodata.str1.1
                0x0304945a       0x86 icomlib.a(pubkey.o)
                                 0xa3 (size before relaxing)
 .rodata.asn1dsWrap
                0x030494e0        0xf icomlib.a(rsa.o)
 .rodata.str1.1
                0x030494ef       0x73 icomlib.a(rsa.o)
                                 0x84 (size before relaxing)
 .rodata.asn256dsWrap
                0x03049562       0x13 icomlib.a(rsa.o)
 .rodata.str1.1
                0x03049575       0xaa icomlib.a(pkcs.o)
                                 0xba (size before relaxing)
 .rodata.str1.1
                0x0304961f       0x4d icomlib.a(asn1.o)
                                 0x5e (size before relaxing)
 .rodata.map    0x0304966c      0x100 icomlib.a(base64.o)
 .rodata.extTable
                0x0304976c       0xc8 icomlib.a(x509.o)
 .rodata.str1.1
                0x03049834      0x435 icomlib.a(x509.o)
                                0x47e (size before relaxing)
 .rodata.str1.1
                0x03049c69       0x3d icomlib.a(prf.o)
                                 0x4e (size before relaxing)
 .rodata.str1.1
                0x03049ca6       0x18 icomlib.a(cipherSuite.o)
                                 0x3d (size before relaxing)
 .rodata.str1.1
                0x03049cbe       0x20 icomlib.a(hsHash.o)
 *fill*         0x03049cde        0x2 
 .rodata._ytab  0x03049ce0       0x60 icomlib.a(time.o)
                0x03049ce0                _ytab
 .rodata.str1.1
                0x03049d40       0x49 ./thirdPartyLib/libdtlib.a(common_general_)
                                 0x66 (size before relaxing)
 .rodata.str1.1
                0x03049d89      0x46e ./thirdPartyLib/libdtlib.a(udp_listen.o)
                                0x4a1 (size before relaxing)
 .rodata.str1.1
                0x0304a1f7      0x1f8 ./thirdPartyLib/libdtlib.a(dt_mqtt.o)
                                0x266 (size before relaxing)
 .rodata.str1.1
                0x0304a3ef      0x114 ./thirdPartyLib/libdtlib.a(dt_tcp_serve.o)
                                0x186 (size before relaxing)
 .rodata._ctype_
                0x0304a503      0x101 /usr/bin/../lib/gcc/arm-none-eabi/4.8.4/../../../../arm-none-eabi/lib/libg_s.a(lib_a-ctype_.o)
                0x0304a503                _ctype_
 .rodata.str1.1
                0x00000000      0x114 /usr/bin/../lib/gcc/arm-none-eabi/4.8.4/../../../../arm-none-eabi/lib/libg_s.a(lib_a-impure.o)
                                  0x2 (size before relaxing)
 .rodata._global_impure_ptr
                0x0304a604        0x4 /usr/bin/../lib/gcc/arm-none-eabi/4.8.4/../../../../arm-none-eabi/lib/libg_s.a(lib_a-impure.o)
                0x0304a604                _global_impure_ptr
 .rodata.str1.1
                0x0304a608       0x21 /usr/bin/../lib/gcc/arm-none-eabi/4.8.4/../../../../arm-none-eabi/lib/libg_s.a(lib_a-mstats.o)
 .rodata.str1.1
                0x0304a629       0x4b /usr/bin/../lib/gcc/arm-none-eabi/4.8.4/../../../../arm-none-eabi/lib/libg_s.a(lib_a-nano-mallstatsr.o)
 .rodata.__sf_fake_stdin
                0x0304a674       0x20 /usr/bin/../lib/gcc/arm-none-eabi/4.8.4/../../../../arm-none-eabi/lib/libg_s.a(lib_a-findfp.o)
                0x0304a674                __sf_fake_stdin
 .rodata.__sf_fake_stdout
                0x0304a694       0x20 /usr/bin/../lib/gcc/arm-none-eabi/4.8.4/../../../../arm-none-eabi/lib/libg_s.a(lib_a-findfp.o)
                0x0304a694                __sf_fake_stdout
 .rodata.__sf_fake_stderr
                0x0304a6b4       0x20 /usr/bin/../lib/gcc/arm-none-eabi/4.8.4/../../../../arm-none-eabi/lib/libg_s.a(lib_a-findfp.o)
                0x0304a6b4                __sf_fake_stderr
 .rodata.str1.1
                0x0304a6d4       0x11 /usr/bin/../lib/gcc/arm-none-eabi/4.8.4/../../../../arm-none-eabi/lib/libg_s.a(lib_a-vfprintf.o)
 .rodata.str1.1
                0x0304a6e5       0x22 /usr/bin/../lib/gcc/arm-none-eabi/4.8.4/../../../../arm-none-eabi/lib/libg_s.a(lib_a-vfprintf_i.o)
 *(.glue_7)
 .glue_7        0x00000000        0x0 linker stubs
 *(.glue_7t)
 .glue_7t       0x00000000        0x0 linker stubs
 *(.ARM.extab)
 .ARM.extab     0x0304a707        0x0 /usr/bin/../lib/gcc/arm-none-eabi/4.8.4/libgcc.a(_divdi3.o)
 .ARM.extab     0x0304a707        0x0 /usr/bin/../lib/gcc/arm-none-eabi/4.8.4/libgcc.a(_udivdi3.o)
 *(.gnu.linkonce.armextab.*)
 *(.vfp11_veneer)
 .vfp11_veneer  0x00000000        0x0 linker stubs
 *(.v4_bx)
 .v4_bx         0x00000000        0x0 linker stubs
 *(.iplt)
 .iplt          0x00000000        0x0 /tmp/ccMTaEw1.o
 *(.rel.dyn)
 *(.rel.iplt)
 .rel.iplt      0x00000000        0x0 /tmp/ccMTaEw1.o
                0x0304a708                . = ALIGN (0x4)
 *fill*         0x0304a707        0x1 

prog_in_sram    0x02000000    0x16a38 load address 0x0304a708
 *(.startup_clone)
 .startup_clone
                0x02000000       0x50 /tmp/ccMTaEw1.o
 *(keep_in_sram)
 keep_in_sram   0x02000050       0x60 icomlib.a(printf.o)
                0x02000050                icomprintf
 keep_in_sram   0x020000b0       0x4c icomlib.a(contiki-main.o)
                0x020000b0                process_loop
                0x020000d4                boot_clear_bss_patch
 keep_in_sram   0x020000fc       0x9c icomlib.a(drv_uart.o)
                0x020000fc                drv_uart_rx_ready
                0x0200011c                drv_uart_rx
                0x0200013c                drv_uart_tx
                0x02000160                drv_uart_40M
                0x02000170                drv_uart_26M
                0x02000180                drv_uart_rx_0
 keep_in_sram   0x02000198      0x268 icomlib.a(hw_init.o)
                0x02000198                ssv_delay
                0x020001b0                ssv6xxx_rf_enable
                0x020001c4                ssv6xxx_rf_disable
                0x020001d8                ssv6xxx_set_channel
 keep_in_sram   0x02000400       0x70 icomlib.a(ssv_lib.o)
                0x02000400                dma_memcpy
 keep_in_sram   0x02000470       0x2c icomlib.a(smartSetting.o)
                0x02000470                smart_feature_rxdata
 keep_in_sram   0x0200049c      0x860 icomlib.a(smartConf.o)
                0x0200049c                rx_process_smartConf
 keep_in_sram   0x02000cfc      0x2f0 icomlib.a(crypthw.o)
                0x02000cfc                sram_del_key
                0x02000db4                sram_set_key
                0x02000e80                sram_set_wep
                0x02000ed8                wpa_drv_set_key
 keep_in_sram   0x02000fec      0x4f4 icomlib.a(drv_pktbuf.o)
                0x02000fec                ssv6xxx_mcu_input_full
                0x02001018                ssv6xxx_pbuf_dump_packet_buf
                0x02001228                setpacketbuf_len
                0x02001240                ssv6xxx_pbuf_alloc
                0x020012b4                getpacketbuffer
                0x020013ac                ssv6xxx_pbuf_id_free
                0x0200145c                ssv6xxx_pbuf_free
 keep_in_sram   0x020014e0      0x694 icomlib.a(ieee80211_mgmt.)
                0x020014e0                getAvailableIndex
                0x020014f0                is_assoc_req
                0x02001500                is_assoc_resp
                0x02001514                is_reassoc_req
                0x02001528                is_reassoc_resp
                0x0200153c                is_probe_req
                0x02001550                is_probe_resp
                0x02001564                is_beacon
                0x02001578                is_atim
                0x0200158c                is_disassoc
                0x020015a0                is_auth
                0x020015b4                is_deauth
                0x020015c8                find_eid_channel
                0x02001614                updateRssiAndLevel
                0x020016c8                rx_process_check_ap
                0x02001aa0                rx_process_mgmt
 keep_in_sram   0x02001b74       0x34 icomlib.a(ieee80211_rdc.o)
 keep_in_sram   0x02001ba8      0x25c icomlib.a(irq.o)
                0x02001ba8                irq_peri_handler
                0x02001c40                irq_mask_disable
                0x02001c78                irq_mask_enable
                0x02001cb0                irq_disable
                0x02001cc8                irq_enable
                0x02001ce0                irq_dispatch
                0x02001ddc                do_irq
 keep_in_sram   0x02001e04       0xa4 icomlib.a(rate_control.o)
                0x02001e04                getctrlrate
                0x02001e18                navcalculate
 keep_in_sram   0x02001ea8      0xb84 icomlib.a(soft_ap.o)
                0x02001ea8                softap_set_peer_mac
                0x02001f14                softap_tx_beacon
                0x02001fe8                softap_beacon_send
                0x0200210c                softap_rx_probe_request
                0x020021b4                softap_rx_authenticate
                0x02002204                softap_rx_assoc_req
                0x020022d8                softap_tx_probe_response
                0x02002564                softap_tx_authenticate
                0x02002650                softap_tx_assoc_response
                0x020027d4                softap_rx_process_data
                0x02002840                softap_rx_process
 keep_in_sram   0x02002a2c       0x9c icomlib.a(ssv6200_rx.o)
                0x02002a98                clearRxBuffer
 keep_in_sram   0x02002ac8      0x150 icomlib.a(arc4.o)
                0x02002ac8                arc4_setkey
                0x02002b40                arc4_xor
                0x02002bc0                arc4_skip
 keep_in_sram   0x02002c18       0x9c icomlib.a(etimer.o)
                0x02002c18                etimer_request_poll
                0x02002c24                etimer_set
                0x02002c3c                etimer_set_icomm
                0x02002c9c                etimer_pending
 keep_in_sram   0x02002cb4      0x49c icomlib.a(process.o)
                0x02002e70                process_exit
                0x02002e80                process_init
                0x02002ed8                process_nevents
                0x02002ef8                process_post
                0x02002f68                process_post_synch
                0x02002f84                process_start
                0x02002fe4                process_poll
                0x02003010                process_is_running
                0x02003020                process_run
 keep_in_sram   0x02003150      0x200 icomlib.a(atcmdlib.o)
                0x02003150                atcmd_rx_handler
 keep_in_sram   0x02003350      0x108 icomlib.a(drv_pmu.o)
                0x02003350                drv_pmu_powersave_mode
                0x020033bc                drv_pmu_normal_mode
                0x02003440                drv_reset_pstate_txsend
                0x02003444                drv_reset_pstate_all
 keep_in_sram   0x02003458      0x138 icomlib.a(smartComm.o)
                0x02003458                getSmartCmdStatus
                0x02003474                getSendToPhoneDataStatus
                0x02003484                isSmartConfigDataFromPhone
                0x02003508                isSmartConfigDataFromAP
 keep_in_sram   0x02003590      0x10c icomlib.a(swpwm.o)
                0x02003590                do_pwm
 keep_in_sram   0x0200369c       0x4c icomlib.a(userSmart.o)
                0x0200369c                callBackFrame
                0x020036b8                rx_process_userSmart
 keep_in_sram   0x020036e8      0x340 icomlib.a(hash_alg.o)
                0x020036e8                hmac_md5_cal
                0x02003738                hmac_sha1_cal
                0x02003788                prf_sha1
                0x02003884                pbkdf2_sha1_f
                0x02003988                pbkdf2_sha1
 keep_in_sram   0x02003a28      0x16c icomlib.a(hmac_md5.o)
                0x02003a28                hmac_md5_init
                0x02003af8                hmac_md5
 keep_in_sram   0x02003b94      0x224 icomlib.a(hmac_sha1.o)
                0x02003b94                hmac_sha1_init
                0x02003c98                hmac_sha1_end
 keep_in_sram   0x02003db8      0x6e8 icomlib.a(ieee80211_mac.o)
                0x020040d4                is_protectframe
                0x020040e0                is_data
                0x020040f4                is_mgmt
                0x02004104                tx_pspoll
                0x0200419c                rx_process_data
                0x02004390                tx_nulldata_req
 keep_in_sram   0x020044a0      0x280 icomlib.a(sha1.o)
                0x020044a0                sha1hw_init
                0x020044fc                sha1hw_input
                0x020045ac                sha1hw_end
                0x020046c8                sha1hw_end2
 keep_in_sram   0x02004720      0x6cc icomlib.a(ssv6200_tx.o)
                0x02004720                ssv6200_transmit
                0x02004778                ssv6200_force_1M
                0x020047ec                ssv6200_set_nav
                0x020048fc                ssv6200_set_descriptor
 keep_in_sram   0x02004dec      0x15c icomlib.a(md5.o)
                0x02004dec                MD5Init
                0x02004e20                MD5Update
                0x02004ecc                MD5Final
 keep_in_sram   0x02004f48       0x30 icomlib.a(drv_mbox.o)
                0x02004f48                drv_mailbox_cpu_ff
 keep_in_sram   0x02004f78      0x68c icomapps.a(data_buff.o)
                0x02004fcc                new_free_buffer
                0x020050a0                free_buffer
                0x020050a4                init_buffer
                0x020050e8                new_alloc_buffer
                0x020051a0                alloc_buffer
                0x020051a8                init_buffer2
                0x02005264                check_buffer_valid
                0x020052b0                append_buf
                0x02005380                add_buf
                0x02005430                get_buf
                0x0200545c                add_char
                0x020054d0                add_string
                0x0200558c                remove_buf
 keep_in_sram   0x02005604       0x58 icomapps.a(wifi_uart_demo.)
                0x02005604                sampleDataUartRead
 keep_in_sram   0x0200565c       0xb8 icomapps.a(xmem.o)
                0x0200565c                cabrio_flash_read_erase_write_in_sector_range
 keep_in_sram   0x02005714      0x268 icomapps.a(szcloud_uart.o)
                0x02005768                __sz_get_packet
                0x020057f8                sz_uart_build_reply_packet
                0x0200589c                __sz_do_with_uart_packet
 keep_in_sram   0x0200597c      0x160 icomapps.a(net.o)
                0x0200597c                get_net_line
                0x020059a8                net_send_tx_queue
                0x02005a10                register_net_line
 keep_in_sram   0x02005adc       0xfc icomapps.a(uart.o)
                0x02005adc                add_uart_rx_to_queue
                0x02005b10                input_char
                0x02005b90                add_rx_buffer
 keep_in_sram   0x02005bd8      0x68c contikilib.a(mqtt.o)
 keep_in_sram   0x02006264      0x360 contikilib.a(uip_arp.o)
                0x02006264                uip_arp_arpin
                0x02006410                uip_arp_out
 keep_in_sram   0x020065c4       0xec contikilib.a(uip-udp-packet.)
                0x020065c4                uip_udp_packet_send
                0x02006634                uip_udp_packet_sendto
 keep_in_sram   0x020066b0       0x4c icomlib.a(serial_api.o)
                0x020066b0                SerialWrite
                0x020066f4                SerialRead
 /usr/bin/../lib/gcc/arm-none-eabi/4.8.4/libgcc.a:_aeabi_uldivmod.o(.text .text* .rodata .rodata*)
 .text          0x020066fc       0x3c /usr/bin/../lib/gcc/arm-none-eabi/4.8.4/libgcc.a(_aeabi_uldivmod.o)
                0x020066fc                __aeabi_uldivmod
 /usr/bin/../lib/gcc/arm-none-eabi/4.8.4/libgcc.a:_divdi3.o(.text .text* .rodata .rodata*)
 .text          0x02006738      0x4d0 /usr/bin/../lib/gcc/arm-none-eabi/4.8.4/libgcc.a(_divdi3.o)
                0x02006738                __divdi3
 /usr/bin/../lib/gcc/arm-none-eabi/4.8.4/libgcc.a:bpabi.o(.text .text* .rodata .rodata*)
 .text          0x02006c08       0x84 /usr/bin/../lib/gcc/arm-none-eabi/4.8.4/libgcc.a(bpabi.o)
                0x02006c08                __gnu_ldivmod_helper
                0x02006c4c                __gnu_uldivmod_helper
 /usr/bin/../lib/gcc/arm-none-eabi/4.8.4/libgcc.a:_udivdi3.o(.text .text* .rodata .rodata*)
 .text          0x02006c8c      0x470 /usr/bin/../lib/gcc/arm-none-eabi/4.8.4/libgcc.a(_udivdi3.o)
                0x02006c8c                __udivdi3
 /usr/bin/../lib/gcc/arm-none-eabi/4.8.4/libgcc.a:_dvmd_tls.o(.text .text* .rodata .rodata*)
 .text          0x020070fc        0x4 /usr/bin/../lib/gcc/arm-none-eabi/4.8.4/libgcc.a(_dvmd_tls.o)
                0x020070fc                __aeabi_ldiv0
                0x020070fc                __aeabi_idiv0
 /usr/bin/../lib/gcc/arm-none-eabi/4.8.4/libgcc.a:_divsi3.o(.text .text* .rodata .rodata*)
 .text          0x02007100      0x148 /usr/bin/../lib/gcc/arm-none-eabi/4.8.4/libgcc.a(_divsi3.o)
                0x02007100                __aeabi_idiv
                0x02007100                __divsi3
                0x02007228                __aeabi_idivmod
 /usr/bin/../lib/gcc/arm-none-eabi/4.8.4/libgcc.a:_udivsi3.o(.text .text* .rodata .rodata*)
 .text          0x02007248      0x114 /usr/bin/../lib/gcc/arm-none-eabi/4.8.4/libgcc.a(_udivsi3.o)
                0x02007248                __udivsi3
                0x02007248                __aeabi_uidiv
                0x0200733c                __aeabi_uidivmod
 contikilib.a:uip.o(.text .text* .rodata .rodata*)
 .text          0x0200735c        0x0 contikilib.a(uip.o)
 .text.chksum   0x0200735c       0x74 contikilib.a(uip.o)
 .text.upper_layer_chksum
                0x020073d0       0x64 contikilib.a(uip.o)
 .text.uip_setipid
                0x02007434       0x18 contikilib.a(uip.o)
                0x02007434                uip_setipid
 .text.uip_add32
                0x0200744c       0xa8 contikilib.a(uip.o)
                0x0200744c                uip_add32
 .text.unlikely.uip_add_rcv_nxt
                0x020074f4       0x4c contikilib.a(uip.o)
 .text.uip_chksum
                0x02007540       0x2c contikilib.a(uip.o)
                0x02007540                uip_chksum
 .text.uip_ipchksum
                0x0200756c       0x34 contikilib.a(uip.o)
                0x0200756c                uip_ipchksum
 .text.uip_tcpchksum
                0x020075a0        0xc contikilib.a(uip.o)
                0x020075a0                uip_tcpchksum
 .text.uip_udpchksum
                0x020075ac        0xc contikilib.a(uip.o)
                0x020075ac                uip_udpchksum
 .text.uip_checktcpsocket
                0x020075b8       0x1c contikilib.a(uip.o)
                0x020075b8                uip_checktcpsocket
 .text.uip_checkudpsocket
                0x020075d4       0x24 contikilib.a(uip.o)
                0x020075d4                uip_checkudpsocket
 .text.uip_gettcpconn
                0x020075f8       0x20 contikilib.a(uip.o)
                0x020075f8                uip_gettcpconn
 .text.uip_getudpconn
                0x02007618       0x28 contikilib.a(uip.o)
                0x02007618                uip_getudpconn
 .text.uip_setcurrtcpconn
                0x02007640       0x10 contikilib.a(uip.o)
                0x02007640                uip_setcurrtcpconn
 .text.uip_getcurrtcpconn
                0x02007650       0x10 contikilib.a(uip.o)
                0x02007650                uip_getcurrtcpconn
 .text.uip_getcurrudpconn
                0x02007660       0x10 contikilib.a(uip.o)
                0x02007660                uip_getcurrudpconn
 .text.uip_connect
                0x02007670      0x1d4 contikilib.a(uip.o)
                0x02007670                uip_connect
 .text.uip_udp_new
                0x02007844      0x13c contikilib.a(uip.o)
                0x02007844                uip_udp_new
 .text.uip_unlisten
                0x02007980       0x64 contikilib.a(uip.o)
                0x02007980                uip_unlisten
 .text.uip_listen
                0x020079e4       0x60 contikilib.a(uip.o)
                0x020079e4                uip_listen
 .text.uip_process
                0x02007a44     0x1724 contikilib.a(uip.o)
                0x02007a44                uip_process
 .text.uip_htons
                0x02009168       0x14 contikilib.a(uip.o)
                0x02009168                uip_htons
 .text.uip_htonl
                0x0200917c       0x28 contikilib.a(uip.o)
                0x0200917c                uip_htonl
 .text.uip_send
                0x020091a4       0x5c contikilib.a(uip.o)
                0x020091a4                uip_send
 .text.uip_set_hostaddr
                0x02009200       0x1c contikilib.a(uip.o)
                0x02009200                uip_set_hostaddr
 .text.uip_random_port
                0x0200921c       0x6c contikilib.a(uip.o)
                0x0200921c                uip_random_port
 .text.uip_init
                0x02009288       0xc8 contikilib.a(uip.o)
                0x02009288                uip_init
 .text.get_last_port
                0x02009350       0x18 contikilib.a(uip.o)
                0x02009350                get_last_port
 .rodata.uip_broadcast_addr
                0x02009368        0x4 contikilib.a(uip.o)
                0x02009368                uip_broadcast_addr
 .rodata.uip_all_zeroes_addr
                0x0200936c        0x4 contikilib.a(uip.o)
                0x0200936c                uip_all_zeroes_addr
 .rodata.str1.1
                0x02009370       0x35 contikilib.a(uip.o)
 contikilib.a:uip-split.o(.text .text* .rodata .rodata*)
 icomlib.a:timer.o(.text .text* .rodata .rodata*)
 .text          0x020093a5        0x0 icomlib.a(timer.o)
 *fill*         0x020093a5        0x3 
 .text.timer_set
                0x020093a8       0x1c icomlib.a(timer.o)
                0x020093a8                timer_set
 .text.timer_reset
                0x020093c4       0x20 icomlib.a(timer.o)
                0x020093c4                timer_reset
 .text.timer_restart
                0x020093e4       0x14 icomlib.a(timer.o)
                0x020093e4                timer_restart
 .text.timer_expired
                0x020093f8       0x3c icomlib.a(timer.o)
                0x020093f8                timer_expired
 .text.timer_remaining
                0x02009434       0x28 icomlib.a(timer.o)
                0x02009434                timer_remaining
 icomlib.a:clock.o(.text .text* .rodata .rodata*)
 .text          0x0200945c        0x0 icomlib.a(clock.o)
 .text.do_clock
                0x0200945c       0xa0 icomlib.a(clock.o)
                0x0200945c                do_clock
 .text.clock_init
                0x020094fc       0x64 icomlib.a(clock.o)
                0x020094fc                clock_init
 .text.clock_time
                0x02009560       0x10 icomlib.a(clock.o)
                0x02009560                clock_time
 .text.clock_seconds
                0x02009570       0x10 icomlib.a(clock.o)
                0x02009570                clock_seconds
 .text.clock_delay
                0x02009580        0x4 icomlib.a(clock.o)
                0x02009580                clock_delay
 .text.update_ntp_time
                0x02009584       0x24 icomlib.a(clock.o)
                0x02009584                update_ntp_time
 .text.get_ntp_time
                0x020095a8       0x10 icomlib.a(clock.o)
                0x020095a8                get_ntp_time
 icomlib.a:etimer.o(.text .text* .rodata .rodata*)
 .text          0x020095b8        0x0 icomlib.a(etimer.o)
 .text.update_time
                0x020095b8       0xa4 icomlib.a(etimer.o)
 .text.process_thread_etimer_process
                0x0200965c      0x124 icomlib.a(etimer.o)
 .text.add_timer
                0x02009780       0x6c icomlib.a(etimer.o)
 .text.etimer_reset
                0x020097ec       0x18 icomlib.a(etimer.o)
                0x020097ec                etimer_reset
 .text.etimer_restart
                0x02009804       0x18 icomlib.a(etimer.o)
                0x02009804                etimer_restart
 .text.etimer_adjust
                0x0200981c       0x14 icomlib.a(etimer.o)
                0x0200981c                etimer_adjust
 .text.etimer_expired
                0x02009830       0x10 icomlib.a(etimer.o)
                0x02009830                etimer_expired
 .text.etimer_expiration_time
                0x02009840       0x1c icomlib.a(etimer.o)
                0x02009840                etimer_expiration_time
 .text.etimer_start_time
                0x0200985c        0x8 icomlib.a(etimer.o)
                0x0200985c                etimer_start_time
 .text.etimer_next_expiration_time
                0x02009864       0x30 icomlib.a(etimer.o)
                0x02009864                etimer_next_expiration_time
 .text.etimer_stop
                0x02009894       0x58 icomlib.a(etimer.o)
                0x02009894                etimer_stop
 .rodata.str1.1
                0x020098ec        0xc icomlib.a(etimer.o)
 contikilib.a:tcpip.o(.text .text* .rodata .rodata*)
 .text          0x020098f8        0x0 contikilib.a(tcpip.o)
 .text.start_periodic_tcp_timer
                0x020098f8       0x24 contikilib.a(tcpip.o)
 .text.tcpip_output
                0x0200991c       0x24 contikilib.a(tcpip.o)
                0x0200991c                tcpip_output
 .text.process_thread_tcpip_process
                0x02009940      0x37c contikilib.a(tcpip.o)
 .text.tcpip_set_outputfunc
                0x02009cbc       0x10 contikilib.a(tcpip.o)
                0x02009cbc                tcpip_set_outputfunc
 .text.change_periodic_tcp_timer
                0x02009ccc       0x28 contikilib.a(tcpip.o)
                0x02009ccc                change_periodic_tcp_timer
 .text.tcp_connect_icomm
                0x02009cf4       0x54 contikilib.a(tcpip.o)
                0x02009cf4                tcp_connect_icomm
 .text.tcp_listen_icomm
                0x02009d48       0x70 contikilib.a(tcpip.o)
                0x02009d48                tcp_listen_icomm
 .text.tcp_unlisten
                0x02009db8       0x6c contikilib.a(tcpip.o)
                0x02009db8                tcp_unlisten
 .text.tcp_listen
                0x02009e24       0x74 contikilib.a(tcpip.o)
                0x02009e24                tcp_listen
 .text.tcp_attach
                0x02009e98       0x18 contikilib.a(tcpip.o)
                0x02009e98                tcp_attach
 .text.udp_attach
                0x02009eb0       0x18 contikilib.a(tcpip.o)
                0x02009eb0                udp_attach
 .text.udp_new  0x02009ec8       0x34 contikilib.a(tcpip.o)
                0x02009ec8                udp_new
 .text.udp_new_icomm
                0x02009efc       0x30 contikilib.a(tcpip.o)
                0x02009efc                udp_new_icomm
 .text.udp_broadcast_new
                0x02009f2c       0x44 contikilib.a(tcpip.o)
                0x02009f2c                udp_broadcast_new
 .text.tcpip_input
                0x02009f70       0x30 contikilib.a(tcpip.o)
                0x02009f70                tcpip_input
 .text.tcpip_poll_udp
                0x02009fa0       0x48 contikilib.a(tcpip.o)
                0x02009fa0                tcpip_poll_udp
 .text.tcpip_poll_tcp
                0x02009fe8       0x14 contikilib.a(tcpip.o)
                0x02009fe8                tcpip_poll_tcp
 .text.process_thread_TCP_arpcheck_process
                0x02009ffc      0x134 contikilib.a(tcpip.o)
 .text.tcp_connect
                0x0200a130       0x44 contikilib.a(tcpip.o)
                0x0200a130                tcp_connect
 .text.tcpip_uipcall
                0x0200a174      0x118 contikilib.a(tcpip.o)
                0x0200a174                tcpip_uipcall
 .rodata.str1.1
                0x0200a28c       0xce contikilib.a(tcpip.o)
 icomlib.a:ieee80211_net.o(.text .text* .rodata .rodata*)
 .text          0x0200a35a        0x0 icomlib.a(ieee80211_net.o)
 *fill*         0x0200a35a        0x2 
 .text.input    0x0200a35c      0x13c icomlib.a(ieee80211_net.o)
 .text.init     0x0200a498        0xc icomlib.a(ieee80211_net.o)
 .text.packet_sent
                0x0200a4a4       0x1c icomlib.a(ieee80211_net.o)
 .text.output   0x0200a4c0       0x8c icomlib.a(ieee80211_net.o)
 .text.arp_packet_sent
                0x0200a54c       0x64 icomlib.a(ieee80211_net.o)
                0x0200a54c                arp_packet_sent
 .rodata.str1.1
                0x0200a5b0       0xf3 icomlib.a(ieee80211_net.o)
 *fill*         0x0200a6a3        0x1 
 .rodata.ieee80211_net
                0x0200a6a4        0xc icomlib.a(ieee80211_net.o)
                0x0200a6a4                ieee80211_net
 icomlib.a:ieee80211_rdc.o(.text .text* .rodata .rodata*)
 .text          0x0200a6b0        0x0 icomlib.a(ieee80211_rdc.o)
 .text.send_list
                0x0200a6b0        0xc icomlib.a(ieee80211_rdc.o)
 .text.on       0x0200a6bc       0x18 icomlib.a(ieee80211_rdc.o)
 .text.off      0x0200a6d4       0x18 icomlib.a(ieee80211_rdc.o)
 .text.channel_check_interval
                0x0200a6ec        0x8 icomlib.a(ieee80211_rdc.o)
 .text.init     0x0200a6f4        0x4 icomlib.a(ieee80211_rdc.o)
 .rodata.ieee80211_rdc
                0x0200a6f8       0x20 icomlib.a(ieee80211_rdc.o)
                0x0200a6f8                ieee80211_rdc
 .rodata.str1.1
                0x0200a718        0xe icomlib.a(ieee80211_rdc.o)
 icomlib.a:packetbuf.o(.text .text* .rodata .rodata*)
 icomlib.a:drv_pktbuf.o(.text .text* .rodata .rodata*)
 .text          0x0200a726        0x0 icomlib.a(drv_pktbuf.o)
 *fill*         0x0200a726        0x2 
 .text.ssv6xxx_pbuf_empty
                0x0200a728       0x20 icomlib.a(drv_pktbuf.o)
                0x0200a728                ssv6xxx_pbuf_empty
 .text.ssv6xxx_pbuf_full
                0x0200a748       0x24 icomlib.a(drv_pktbuf.o)
                0x0200a748                ssv6xxx_pbuf_full
 .text.ssv6xxx_pbuf_push
                0x0200a76c       0xf4 icomlib.a(drv_pktbuf.o)
                0x0200a76c                ssv6xxx_pbuf_push
 .text.ssv6xxx_pbuf_pop
                0x0200a860       0xcc icomlib.a(drv_pktbuf.o)
                0x0200a860                ssv6xxx_pbuf_pop
 .rodata.__func__.4928
                0x0200a92c       0x12 icomlib.a(drv_pktbuf.o)
 .rodata.__func__.4934
                0x0200a93e       0x11 icomlib.a(drv_pktbuf.o)
 .rodata.__func__.4940
                0x0200a94f       0x15 icomlib.a(drv_pktbuf.o)
 .rodata.str1.1
                0x0200a964      0x1d1 icomlib.a(drv_pktbuf.o)
 icomlib.a:ssvradio.o(.text .text* .rodata .rodata*)
 .text          0x0200ab35        0x0 icomlib.a(ssvradio.o)
 *fill*         0x0200ab35        0x3 
 .text.ssv6200_radio_prepare
                0x0200ab38        0x8 icomlib.a(ssvradio.o)
 .text.ssv6200_radio_transmit
                0x0200ab40        0x8 icomlib.a(ssvradio.o)
 .text.ssv6200_radio_read
                0x0200ab48        0x8 icomlib.a(ssvradio.o)
 .text.ssv6200_radio_channel_clear
                0x0200ab50        0x8 icomlib.a(ssvradio.o)
 .text.ssv6200_radio_receiving_packet
                0x0200ab58        0x8 icomlib.a(ssvradio.o)
 .text.ssv6200_radio_pending_packet
                0x0200ab60        0x8 icomlib.a(ssvradio.o)
 .text.process_thread_ssv6200_radio_receive_process
                0x0200ab68      0x220 icomlib.a(ssvradio.o)
 .text.ssv6200_radio_off
                0x0200ad88       0x10 icomlib.a(ssvradio.o)
 .text.ssv6200_radio_on
                0x0200ad98       0x10 icomlib.a(ssvradio.o)
 .text.ssv6200_radio_send
                0x0200ada8       0x38 icomlib.a(ssvradio.o)
 .text.ssv6200_radio_init
                0x0200ade0       0x94 icomlib.a(ssvradio.o)
 .text.ssv6200_radio_retrans
                0x0200ae74       0x78 icomlib.a(ssvradio.o)
                0x0200ae74                ssv6200_radio_retrans
 .rodata.str1.1
                0x0200aeec       0x34 icomlib.a(ssvradio.o)
                                 0x79 (size before relaxing)
 .rodata.__func__.6738
                0x0200af20       0x2d icomlib.a(ssvradio.o)
 *fill*         0x0200af4d        0x3 
 .rodata.ssv6200_radio_driver
                0x0200af50       0x28 icomlib.a(ssvradio.o)
                0x0200af50                ssv6200_radio_driver
 icomlib.a:ssv6200_rx.o(.text .text* .rodata .rodata*)
 .text          0x0200af78        0x0 icomlib.a(ssv6200_rx.o)
 .text.is_tx_active
                0x0200af78       0x44 icomlib.a(ssv6200_rx.o)
                0x0200af78                is_tx_active
 .text.ssv6200_dump_rx_descriptor
                0x0200afbc       0x44 icomlib.a(ssv6200_rx.o)
                0x0200afbc                ssv6200_dump_rx_descriptor
 .text.ssv6200_dump_null_data_mac
                0x0200b000        0x4 icomlib.a(ssv6200_rx.o)
                0x0200b000                ssv6200_dump_null_data_mac
 .text.filterPacketBuffer
                0x0200b004      0x168 icomlib.a(ssv6200_rx.o)
                0x0200b004                filterPacketBuffer
 .text.dropDataInSmartComm
                0x0200b16c      0x1a8 icomlib.a(ssv6200_rx.o)
                0x0200b16c                dropDataInSmartComm
 .text.rx_data_clear
                0x0200b314       0x34 icomlib.a(ssv6200_rx.o)
                0x0200b314                rx_data_clear
 .text.drop_packet
                0x0200b348       0x30 icomlib.a(ssv6200_rx.o)
                0x0200b348                drop_packet
 .text.STA_mac_rx_handler
                0x0200b378      0x310 icomlib.a(ssv6200_rx.o)
                0x0200b378                STA_mac_rx_handler
 .text.AP_mac_rx_handler
                0x0200b688      0x238 icomlib.a(ssv6200_rx.o)
                0x0200b688                AP_mac_rx_handler
 .rodata.__func__.7060
                0x0200b8c0       0x14 icomlib.a(ssv6200_rx.o)
 .rodata.__func__.7066
                0x0200b8d4        0xc icomlib.a(ssv6200_rx.o)
 .rodata.str1.1
                0x0200b8e0      0x128 icomlib.a(ssv6200_rx.o)
 .rodata.broadcast_ethaddr.7058
                0x0200ba08        0x6 icomlib.a(ssv6200_rx.o)
 icomlib.a:ssv6200_tx.o(.text .text* .rodata .rodata*)
 .text          0x0200ba0e        0x0 icomlib.a(ssv6200_tx.o)
 icomlib.a:rate_control.o(.text .text* .rodata .rodata*)
 .text          0x0200ba0e        0x0 icomlib.a(rate_control.o)
 *fill*         0x0200ba0e        0x2 
 .text.init_ratecontrol
                0x0200ba10       0xe8 icomlib.a(rate_control.o)
                0x0200ba10                init_ratecontrol
 .text.datarate_down
                0x0200baf8       0x74 icomlib.a(rate_control.o)
                0x0200baf8                datarate_down
 .text.datarate_up
                0x0200bb6c       0x8c icomlib.a(rate_control.o)
                0x0200bb6c                datarate_up
 .text.setup_custom_rate
                0x0200bbf8       0x18 icomlib.a(rate_control.o)
                0x0200bbf8                setup_custom_rate
 .text.get_current_rate
                0x0200bc10       0x10 icomlib.a(rate_control.o)
                0x0200bc10                get_current_rate
 .rodata.ssv6xxx_rc_rate_set
                0x0200bc20       0xa8 icomlib.a(rate_control.o)
                0x0200bc20                ssv6xxx_rc_rate_set
 .rodata.str1.1
                0x0200bcc8       0x40 icomlib.a(rate_control.o)
                                 0x5f (size before relaxing)
 icomlib.a:printf.o(.text .text* .rodata .rodata*)
 .text          0x0200bd08        0x0 icomlib.a(printf.o)
 .text.printchar
                0x0200bd08       0x4c icomlib.a(printf.o)
 .text.printf   0x0200bd54       0x30 icomlib.a(printf.o)
                0x0200bd54                printf
 .text.prints   0x0200bd84      0x11c icomlib.a(printf.o)
 .text.printi   0x0200bea0      0x144 icomlib.a(printf.o)
 .text.print    0x0200bfe4      0x24c icomlib.a(printf.o)
                0x0200bfe4                print
 .text.sprintf  0x0200c230       0x34 icomlib.a(printf.o)
                0x0200c230                sprintf
 .text.set_log_all_group_enable
                0x0200c264       0x24 icomlib.a(printf.o)
                0x0200c264                set_log_all_group_enable
 .text.set_log_all_group_disable
                0x0200c288       0x24 icomlib.a(printf.o)
                0x0200c288                set_log_all_group_disable
 .text.set_log_all_group
                0x0200c2ac       0x2c icomlib.a(printf.o)
                0x0200c2ac                set_log_all_group
 .text.set_log_all_level
                0x0200c2d8       0x8c icomlib.a(printf.o)
                0x0200c2d8                set_log_all_level
 .text.set_log_single_group_level
                0x0200c364       0x40 icomlib.a(printf.o)
                0x0200c364                set_log_single_group_level
 .text.dump_log_control_info
                0x0200c3a4       0x78 icomlib.a(printf.o)
                0x0200c3a4                dump_log_control_info
 .rodata.str1.1
                0x0200c41c       0x61 icomlib.a(printf.o)
 icomlib.a:debug-uart.o(.text .text* .rodata .rodata*)
 icomlib.a:soft_ap.o(.text .text* .rodata .rodata*)
 .text          0x0200c47d        0x0 icomlib.a(soft_ap.o)
 *fill*         0x0200c47d        0x3 
 .text.softap_dump_log
                0x0200c480      0x198 icomlib.a(soft_ap.o)
                0x0200c480                softap_dump_log
 .text.softap_set_max_sta_num
                0x0200c618       0x24 icomlib.a(soft_ap.o)
                0x0200c618                softap_set_max_sta_num
 .text.softap_set_encryt_mode
                0x0200c63c       0x1c icomlib.a(soft_ap.o)
                0x0200c63c                softap_set_encryt_mode
 .text.softap_set_bssid
                0x0200c658        0xc icomlib.a(soft_ap.o)
                0x0200c658                softap_set_bssid
 .text.softap_reset_peer_mac
                0x0200c664       0x28 icomlib.a(soft_ap.o)
                0x0200c664                softap_reset_peer_mac
 .text.softap_set_passphras
                0x0200c68c       0x3c icomlib.a(soft_ap.o)
                0x0200c68c                softap_set_passphras
 .text.softap_reset_sta_info
                0x0200c6c8       0x7c icomlib.a(soft_ap.o)
                0x0200c6c8                softap_reset_sta_info
 .text.softap_reset_sta_state
                0x0200c744       0x34 icomlib.a(soft_ap.o)
                0x0200c744                softap_reset_sta_state
 .text.softap_reset_sta_all
                0x0200c778       0x60 icomlib.a(soft_ap.o)
                0x0200c778                softap_reset_sta_all
 .text.softap_incr_seq_no
                0x0200c7d8       0x54 icomlib.a(soft_ap.o)
                0x0200c7d8                softap_incr_seq_no
 .text.softap_get_timestamp
                0x0200c82c       0x10 icomlib.a(soft_ap.o)
                0x0200c82c                softap_get_timestamp
 .text.softap_incr_sta_idle_timer
                0x0200c83c       0x54 icomlib.a(soft_ap.o)
                0x0200c83c                softap_incr_sta_idle_timer
 .text.softap_get_sta_connected
                0x0200c890       0x28 icomlib.a(soft_ap.o)
                0x0200c890                softap_get_sta_connected
 .text.softap_get_sta_connected_number
                0x0200c8b8       0x1c icomlib.a(soft_ap.o)
                0x0200c8b8                softap_get_sta_connected_number
 .text.softap_incre_sta_connected_number
                0x0200c8d4       0xa0 icomlib.a(soft_ap.o)
                0x0200c8d4                softap_incre_sta_connected_number
 .text.softap_decre_sta_connected_number
                0x0200c974       0x94 icomlib.a(soft_ap.o)
                0x0200c974                softap_decre_sta_connected_number
 .text.softap_reset_sta_idle_timer
                0x0200ca08       0x38 icomlib.a(soft_ap.o)
                0x0200ca08                softap_reset_sta_idle_timer
 .text.softap_get_sta_index_by_mac
                0x0200ca40       0x70 icomlib.a(soft_ap.o)
                0x0200ca40                softap_get_sta_index_by_mac
 .text.softap_reset_sta_idle_timer_by_mac
                0x0200cab0       0x40 icomlib.a(soft_ap.o)
                0x0200cab0                softap_reset_sta_idle_timer_by_mac
 .text.softap_sta_timeouted
                0x0200caf0       0xb8 icomlib.a(soft_ap.o)
                0x0200caf0                softap_sta_timeouted
 .text.softap_reset_tx_nulldata_idle_timer
                0x0200cba8       0x60 icomlib.a(soft_ap.o)
                0x0200cba8                softap_reset_tx_nulldata_idle_timer
 .text.softap_chk_if_connected_sta
                0x0200cc08       0x78 icomlib.a(soft_ap.o)
                0x0200cc08                softap_chk_if_connected_sta
 .text.softap_push_sta_info
                0x0200cc80       0xc8 icomlib.a(soft_ap.o)
                0x0200cc80                softap_push_sta_info
 .text.softap_sta_assoc_resp_acked
                0x0200cd48      0x184 icomlib.a(soft_ap.o)
                0x0200cd48                softap_sta_assoc_resp_acked
 .text.softap_get_allow_connection
                0x0200cecc       0x7c icomlib.a(soft_ap.o)
                0x0200cecc                softap_get_allow_connection
 .text.softap_set_state_dhcp_rack
                0x0200cf48       0x14 icomlib.a(soft_ap.o)
                0x0200cf48                softap_set_state_dhcp_rack
 .text.softap_set_ip_info
                0x0200cf5c       0x3c icomlib.a(soft_ap.o)
                0x0200cf5c                softap_set_ip_info
 .text.softap_tx_nulldata
                0x0200cf98       0xd0 icomlib.a(soft_ap.o)
                0x0200cf98                softap_tx_nulldata
 .text.process_thread_softap_tx_nulldata_process
                0x0200d068      0x154 icomlib.a(soft_ap.o)
 .text.softap_init_tx_beacon
                0x0200d1bc      0x288 icomlib.a(soft_ap.o)
                0x0200d1bc                softap_init_tx_beacon
 .text.softap_disable_autobeacon
                0x0200d444       0x14 icomlib.a(soft_ap.o)
                0x0200d444                softap_disable_autobeacon
 .text.softap_set_channel_setting
                0x0200d458       0x20 icomlib.a(soft_ap.o)
                0x0200d458                softap_set_channel_setting
 .text.softap_change_channel
                0x0200d478       0x30 icomlib.a(soft_ap.o)
                0x0200d478                softap_change_channel
 .text.softap_rx_check_RSN
                0x0200d4a8       0xac icomlib.a(soft_ap.o)
                0x0200d4a8                softap_rx_check_RSN
 .text.softap_rx_deauth
                0x0200d554       0x44 icomlib.a(soft_ap.o)
                0x0200d554                softap_rx_deauth
 .text.softap_rx_disassoc
                0x0200d598       0x44 icomlib.a(soft_ap.o)
                0x0200d598                softap_rx_disassoc
 .text.softap_rx_reassoc_req
                0x0200d5dc       0xd4 icomlib.a(soft_ap.o)
                0x0200d5dc                softap_rx_reassoc_req
 .text.softap_tx_deauth
                0x0200d6b0       0xdc icomlib.a(soft_ap.o)
                0x0200d6b0                softap_tx_deauth
 .text.softap_tx_deauth_connected
                0x0200d78c      0x12c icomlib.a(soft_ap.o)
                0x0200d78c                softap_tx_deauth_connected
 .text.softap_tx_deauth_unknown_sta
                0x0200d8b8       0xf0 icomlib.a(soft_ap.o)
                0x0200d8b8                softap_tx_deauth_unknown_sta
 .text.softap_tx_disassoc
                0x0200d9a8       0xf4 icomlib.a(soft_ap.o)
                0x0200d9a8                softap_tx_disassoc
 .text.softap_tx_reassoc_response
                0x0200da9c      0x184 icomlib.a(soft_ap.o)
                0x0200da9c                softap_tx_reassoc_response
 .text.softap_process_all_sta_timeouted
                0x0200dc20       0xac icomlib.a(soft_ap.o)
                0x0200dc20                softap_process_all_sta_timeouted
 .text.process_thread_softap_mgm_process
                0x0200dccc      0x1b0 icomlib.a(soft_ap.o)
 .text.softap_dhcp_start
                0x0200de7c       0x18 icomlib.a(soft_ap.o)
                0x0200de7c                softap_dhcp_start
 .text.softap_dhcp_leasetime
                0x0200de94       0x30 icomlib.a(soft_ap.o)
                0x0200de94                softap_dhcp_leasetime
 .text.softap_set_mng_queue
                0x0200dec4       0xcc icomlib.a(soft_ap.o)
                0x0200dec4                softap_set_mng_queue
 .text.softap_reset_mng_queue
                0x0200df90       0x7c icomlib.a(soft_ap.o)
                0x0200df90                softap_reset_mng_queue
 .text.softap_start
                0x0200e00c      0x1e0 icomlib.a(soft_ap.o)
                0x0200e00c                softap_start
 .text.softap_exit
                0x0200e1ec       0xc4 icomlib.a(soft_ap.o)
                0x0200e1ec                softap_exit
 .rodata        0x0200e2b0        0x6 icomlib.a(soft_ap.o)
 .rodata.__func__.9181
                0x0200e2b6       0x24 icomlib.a(soft_ap.o)
 .rodata.__func__.9368
                0x0200e2da       0x19 icomlib.a(soft_ap.o)
 .rodata.__func__.9409
                0x0200e2f3       0x1d icomlib.a(soft_ap.o)
 .rodata.__func__.9430
                0x0200e310       0x19 icomlib.a(soft_ap.o)
 .rodata.__func__.9377
                0x0200e329       0x17 icomlib.a(soft_ap.o)
 .rodata.__func__.9419
                0x0200e340       0x13 icomlib.a(soft_ap.o)
 .rodata.__func__.9387
                0x0200e353       0x11 icomlib.a(soft_ap.o)
 .rodata.__func__.9107
                0x0200e364       0x16 icomlib.a(soft_ap.o)
 .rodata.__func__.9249
                0x0200e37a       0x13 icomlib.a(soft_ap.o)
 .rodata.__func__.9398
                0x0200e38d       0x1b icomlib.a(soft_ap.o)
 .rodata.__func__.9513
                0x0200e3a8       0x16 icomlib.a(soft_ap.o)
 .rodata.__func__.9442
                0x0200e3be       0x1b icomlib.a(soft_ap.o)
 .rodata.__func__.9275
                0x0200e3d9       0x11 icomlib.a(soft_ap.o)
 .rodata.__func__.9141
                0x0200e3ea       0x22 icomlib.a(soft_ap.o)
 .rodata.__func__.9506
                0x0200e40c       0x13 icomlib.a(soft_ap.o)
 .rodata.__func__.9147
                0x0200e41f       0x22 icomlib.a(soft_ap.o)
 .rodata.str1.1
                0x0200e441      0x3ba icomlib.a(soft_ap.o)
                                0x40e (size before relaxing)
 .rodata.__func__.9526
                0x0200e7fb        0xd icomlib.a(soft_ap.o)
 icomlib.a:xmem.o(.text .text* .rodata .rodata*)
 icomlib.a:drv_flash.o(.text .text* .rodata .rodata*)
 .text          0x0200e808        0x0 icomlib.a(drv_flash.o)
 .text.drv_flash_get_cache_addr
                0x0200e808        0xc icomlib.a(drv_flash.o)
                0x0200e808                drv_flash_get_cache_addr
 .text.drv_flash_get_base_addr
                0x0200e814       0x10 icomlib.a(drv_flash.o)
                0x0200e814                drv_flash_get_base_addr
 .text.drv_flash_write_cmd
                0x0200e824       0x14 icomlib.a(drv_flash.o)
                0x0200e824                drv_flash_write_cmd
 .text.drv_flash_init
                0x0200e838       0xb0 icomlib.a(drv_flash.o)
                0x0200e838                drv_flash_init
 .text.drv_flash_wait_spi_busy
                0x0200e8e8       0x34 icomlib.a(drv_flash.o)
                0x0200e8e8                drv_flash_wait_spi_busy
 .text.drv_flash_read_spi_status_regsiter
                0x0200e91c       0x64 icomlib.a(drv_flash.o)
                0x0200e91c                drv_flash_read_spi_status_regsiter
 .text.drv_flash_wait_spi_status_regsiter
                0x0200e980       0x3c icomlib.a(drv_flash.o)
                0x0200e980                drv_flash_wait_spi_status_regsiter
 .text.drv_flash_write_enable
                0x0200e9bc       0x48 icomlib.a(drv_flash.o)
                0x0200e9bc                drv_flash_write_enable
 .text.drv_flash_sector_erase
                0x0200ea04       0x60 icomlib.a(drv_flash.o)
                0x0200ea04                drv_flash_sector_erase
 .text.drv_flash_page_program_for_erase
                0x0200ea64       0x68 icomlib.a(drv_flash.o)
                0x0200ea64                drv_flash_page_program_for_erase
 .text.drv_flash_page_program
                0x0200eacc       0x68 icomlib.a(drv_flash.o)
                0x0200eacc                drv_flash_page_program
 .text.drv_flash_read
                0x0200eb34       0x84 icomlib.a(drv_flash.o)
                0x0200eb34                drv_flash_read
 .text.drv_flash_read_jedec_id
                0x0200ebb8       0x84 icomlib.a(drv_flash.o)
                0x0200ebb8                drv_flash_read_jedec_id
 icomlib.a:flash_api.o(.text .text* .rodata .rodata*)
 .text          0x0200ec3c        0x0 icomlib.a(flash_api.o)
 .text.spi_flash_init
                0x0200ec3c       0x10 icomlib.a(flash_api.o)
                0x0200ec3c                spi_flash_init
 .text.spi_flash_read
                0x0200ec4c       0x2c icomlib.a(flash_api.o)
                0x0200ec4c                spi_flash_read
 .text.spi_flash_sector_erase
                0x0200ec78       0x40 icomlib.a(flash_api.o)
                0x0200ec78                spi_flash_sector_erase
 .text.spi_flash_write
                0x0200ecb8       0x6c icomlib.a(flash_api.o)
                0x0200ecb8                spi_flash_write
 .text.spi_flash_finalize
                0x0200ed24       0x70 icomlib.a(flash_api.o)
                0x0200ed24                spi_flash_finalize
 .text.spi_flash_write_patch
                0x0200ed94       0xb0 icomlib.a(flash_api.o)
                0x0200ed94                spi_flash_write_patch
 .text.spi_flash_write_directly
                0x0200ee44       0x48 icomlib.a(flash_api.o)
                0x0200ee44                spi_flash_write_directly
 .text.spi_flash_test
                0x0200ee8c       0xa0 icomlib.a(flash_api.o)
                0x0200ee8c                spi_flash_test
 .text.spi_flash_test2
                0x0200ef2c       0x8c icomlib.a(flash_api.o)
                0x0200ef2c                spi_flash_test2
 .text.spi_flash_cutom_cmd
                0x0200efb8        0x8 icomlib.a(flash_api.o)
                0x0200efb8                spi_flash_cutom_cmd
 .text.spi_flash_read_jedec
                0x0200efc0       0x7c icomlib.a(flash_api.o)
                0x0200efc0                spi_flash_read_jedec
 .rodata.__func__.5666
                0x0200f03c       0x10 icomlib.a(flash_api.o)
 .rodata.str1.1
                0x0200f04c      0x1ab icomlib.a(flash_api.o)
 icomlib.a:hw_regs_api.o(.text .text* .rodata .rodata*)
 .text          0x0200f1f7        0x0 icomlib.a(hw_regs_api.o)
 *fill*         0x0200f1f7        0x1 
 .text.hw_reg_write
                0x0200f1f8        0xc icomlib.a(hw_regs_api.o)
                0x0200f1f8                hw_reg_write
 .text.hw_reg_read
                0x0200f204       0x10 icomlib.a(hw_regs_api.o)
                0x0200f204                hw_reg_read
 .text.hw_reg_set_bits
                0x0200f214       0x18 icomlib.a(hw_regs_api.o)
                0x0200f214                hw_reg_set_bits
 icomlib.a:powersave.o(.text .text* .rodata .rodata*)
 .text          0x0200f22c        0x0 icomlib.a(powersave.o)
 .text.set_power_waketime
                0x0200f22c       0x90 icomlib.a(powersave.o)
                0x0200f22c                set_power_waketime
 .text.set_power_sleeptime
                0x0200f2bc       0x6c icomlib.a(powersave.o)
                0x0200f2bc                set_power_sleeptime
 .text.disable_power_waketime
                0x0200f328       0x14 icomlib.a(powersave.o)
                0x0200f328                disable_power_waketime
 .text.disable_power_sleeptime
                0x0200f33c       0x14 icomlib.a(powersave.o)
                0x0200f33c                disable_power_sleeptime
 .text.is_waketime_alive
                0x0200f350       0x38 icomlib.a(powersave.o)
                0x0200f350                is_waketime_alive
 .text.findTIM  0x0200f388      0x120 icomlib.a(powersave.o)
                0x0200f388                findTIM
 .text.Switch_Power_mode
                0x0200f4a8       0x40 icomlib.a(powersave.o)
                0x0200f4a8                Switch_Power_mode
 .text.timerintr_handler
                0x0200f4e8       0xdc icomlib.a(powersave.o)
                0x0200f4e8                timerintr_handler
 .text.powersave_start_run
                0x0200f5c4       0x6c icomlib.a(powersave.o)
                0x0200f5c4                powersave_start_run
 .text.powersave_stop_run
                0x0200f630       0x48 icomlib.a(powersave.o)
                0x0200f630                powersave_stop_run
 .text.process_thread_power_wake_process
                0x0200f678       0xdc icomlib.a(powersave.o)
 .rodata.str1.1
                0x0200f754       0x4c icomlib.a(powersave.o)
 contikilib.a:socket_driver.o(.text .text* .rodata .rodata*)
 .text          0x0200f7a0        0x0 contikilib.a(socket_driver.o)
 .text.process_thread_udp_driver_process
                0x0200f7a0       0xe4 contikilib.a(socket_driver.o)
 .text.getpeerIPv4addr
                0x0200f884       0x30 contikilib.a(socket_driver.o)
                0x0200f884                getpeerIPv4addr
 .text.getpeerIPv4port
                0x0200f8b4       0x38 contikilib.a(socket_driver.o)
                0x0200f8b4                getpeerIPv4port
 .text.set_tcp_timeout
                0x0200f8ec        0x4 contikilib.a(socket_driver.o)
                0x0200f8ec                set_tcp_timeout
 .text.tcpsend  0x0200f8f0       0x5c contikilib.a(socket_driver.o)
                0x0200f8f0                tcpsend
 .text.tcprecv  0x0200f94c       0xb8 contikilib.a(socket_driver.o)
                0x0200f94c                tcprecv
 .text.tcpevent_handle
                0x0200fa04      0x268 contikilib.a(socket_driver.o)
                0x0200fa04                tcpevent_handle
 .text.process_thread_tcp_driver_process
                0x0200fc6c       0x80 contikilib.a(socket_driver.o)
 .text.tcpconnect
                0x0200fcec       0x64 contikilib.a(socket_driver.o)
                0x0200fcec                tcpconnect
 .text.tcpclose
                0x0200fd50       0x28 contikilib.a(socket_driver.o)
                0x0200fd50                tcpclose
 .text.tcplisten
                0x0200fd78       0x20 contikilib.a(socket_driver.o)
                0x0200fd78                tcplisten
 .text.tcpunlisten
                0x0200fd98       0x10 contikilib.a(socket_driver.o)
                0x0200fd98                tcpunlisten
 .text.tcpattch
                0x0200fda8       0x20 contikilib.a(socket_driver.o)
                0x0200fda8                tcpattch
 .text.udpcreate
                0x0200fdc8       0x48 contikilib.a(socket_driver.o)
                0x0200fdc8                udpcreate
 .text.udpclose
                0x0200fe10       0x20 contikilib.a(socket_driver.o)
                0x0200fe10                udpclose
 .text.udpsendto
                0x0200fe30       0x9c contikilib.a(socket_driver.o)
                0x0200fe30                udpsendto
 .text.udprecvfrom
                0x0200fecc       0xc8 contikilib.a(socket_driver.o)
                0x0200fecc                udprecvfrom
 .rodata.str1.1
                0x0200ff94       0x29 contikilib.a(socket_driver.o)
 icomlib.a:pstm.o(.text .text* .rodata .rodata*)
 .text          0x0200ffbd        0x0 icomlib.a(pstm.o)
 *fill*         0x0200ffbd        0x3 
 .text.pstm_init_size
                0x0200ffc0       0xa4 icomlib.a(pstm.o)
                0x0200ffc0                pstm_init_size
 .text.pstm_init
                0x02010064       0x98 icomlib.a(pstm.o)
                0x02010064                pstm_init
 .text.pstm_grow
                0x020100fc       0xc0 icomlib.a(pstm.o)
                0x020100fc                pstm_grow
 .text.pstm_copy
                0x020101bc       0xf0 icomlib.a(pstm.o)
                0x020101bc                pstm_copy
 .text.pstm_clamp
                0x020102ac       0x54 icomlib.a(pstm.o)
                0x020102ac                pstm_clamp
 .text.s_pstm_add
                0x02010300      0x240 icomlib.a(pstm.o)
 .text.pstm_clear
                0x02010540       0x64 icomlib.a(pstm.o)
                0x02010540                pstm_clear
 .text.pstm_clear_multi
                0x020105a4       0x60 icomlib.a(pstm.o)
                0x020105a4                pstm_clear_multi
 .text.pstm_zero
                0x02010604       0x40 icomlib.a(pstm.o)
                0x02010604                pstm_zero
 .text.pstm_cmp_mag
                0x02010644       0x94 icomlib.a(pstm.o)
                0x02010644                pstm_cmp_mag
 .text.pstm_cmp
                0x020106d8       0x58 icomlib.a(pstm.o)
                0x020106d8                pstm_cmp
 .text.pstm_init_for_read_unsigned_bin
                0x02010730       0x10 icomlib.a(pstm.o)
                0x02010730                pstm_init_for_read_unsigned_bin
 .text.pstm_read_unsigned_bin
                0x02010740       0x9c icomlib.a(pstm.o)
                0x02010740                pstm_read_unsigned_bin
 .text.pstm_count_bits
                0x020107dc       0x54 icomlib.a(pstm.o)
                0x020107dc                pstm_count_bits
 .text.pstm_unsigned_bin_size
                0x02010830       0x24 icomlib.a(pstm.o)
                0x02010830                pstm_unsigned_bin_size
 .text.pstm_set
                0x02010854       0x30 icomlib.a(pstm.o)
                0x02010854                pstm_set
 .text.pstm_rshd
                0x02010884       0xa4 icomlib.a(pstm.o)
                0x02010884                pstm_rshd
 .text.pstm_lshd
                0x02010928      0x104 icomlib.a(pstm.o)
                0x02010928                pstm_lshd
 .text.unlikely.pstm_mul_2d
                0x02010a2c      0x13c icomlib.a(pstm.o)
 .text.pstm_2expt
                0x02010b68       0x94 icomlib.a(pstm.o)
                0x02010b68                pstm_2expt
 .text.pstm_mul_2
                0x02010bfc      0x14c icomlib.a(pstm.o)
                0x02010bfc                pstm_mul_2
 .text.s_pstm_sub
                0x02010d48      0x194 icomlib.a(pstm.o)
                0x02010d48                s_pstm_sub
 .text.pstm_sub
                0x02010edc       0x94 icomlib.a(pstm.o)
                0x02010edc                pstm_sub
 .text.pstm_sub_d
                0x02010f70       0x60 icomlib.a(pstm.o)
                0x02010f70                pstm_sub_d
 .text.pstm_montgomery_setup
                0x02010fd0       0x54 icomlib.a(pstm.o)
                0x02010fd0                pstm_montgomery_setup
 .text.pstm_montgomery_calc_normalization
                0x02011024       0xfc icomlib.a(pstm.o)
                0x02011024                pstm_montgomery_calc_normalization
 .text.pstm_mul_d
                0x02011120      0x16c icomlib.a(pstm.o)
                0x02011120                pstm_mul_d
 .text.pstm_div_2d
                0x0201128c      0x200 icomlib.a(pstm.o)
                0x0201128c                pstm_div_2d
 .text.pstm_div_2
                0x0201148c      0x12c icomlib.a(pstm.o)
                0x0201148c                pstm_div_2
 .text.pstm_init_copy
                0x020115b8       0x84 icomlib.a(pstm.o)
                0x020115b8                pstm_init_copy
 .text.pstm_exch
                0x0201163c       0x30 icomlib.a(pstm.o)
                0x0201163c                pstm_exch
 .text.pstm_add
                0x0201166c       0x7c icomlib.a(pstm.o)
                0x0201166c                pstm_add
 .text.pstm_div
                0x020116e8      0x67c icomlib.a(pstm.o)
                0x020116e8                pstm_div
 .text.pstm_mod
                0x02011d64       0xb8 icomlib.a(pstm.o)
                0x02011d64                pstm_mod
 .text.pstm_mulmod
                0x02011e1c       0xe4 icomlib.a(pstm.o)
                0x02011e1c                pstm_mulmod
 .text.pstm_exptmod
                0x02011f00      0x630 icomlib.a(pstm.o)
                0x02011f00                pstm_exptmod
 .text.pstm_to_unsigned_bin_nr
                0x02012530       0xc0 icomlib.a(pstm.o)
                0x02012530                pstm_to_unsigned_bin_nr
 .text.pstm_to_unsigned_bin
                0x020125f0       0xe8 icomlib.a(pstm.o)
                0x020125f0                pstm_to_unsigned_bin
 .text.pstm_cmp_d
                0x020126d8       0x78 icomlib.a(pstm.o)
                0x020126d8                pstm_cmp_d
 .text.pstm_invmod
                0x02012750      0x854 icomlib.a(pstm.o)
                0x02012750                pstm_invmod
 .rodata.str1.1
                0x02012fa4       0x91 icomlib.a(pstm.o)
                                 0x96 (size before relaxing)
 icomlib.a:pstmmonreduce.o(.text .text* .rodata .rodata*)
 .text          0x02013035        0x0 icomlib.a(pstmmonreduce.o)
 *fill*         0x02013035        0x3 
 .text.pstm_montgomery_reduce
                0x02013038      0x280 icomlib.a(pstmmonreduce.o)
                0x02013038                pstm_montgomery_reduce
 icomlib.a:pstmmulcomba.o(.text .text* .rodata .rodata*)
 .text          0x020132b8        0x0 icomlib.a(pstmmulcomba.o)
 .text.pstm_mul_comba
                0x020132b8      0x2a8 icomlib.a(pstmmulcomba.o)
                0x020132b8                pstm_mul_comba
 icomlib.a:pstmsqrcomba.o(.text .text* .rodata .rodata*)
 .text          0x02013560        0x0 icomlib.a(pstmsqrcomba.o)
 .text.pstm_sqr_comba
                0x02013560      0x27c icomlib.a(pstmsqrcomba.o)
                0x02013560                pstm_sqr_comba
 icomlib.a:sha512.o(.text .text* .rodata .rodata*)
 icomlib.a:sha384.o(.text .text* .rodata .rodata*)
 icomlib.a:sha256.o(.text .text* .rodata .rodata*)
 .text          0x020137dc        0x0 icomlib.a(sha256.o)
 .text.sha256_compress
                0x020137dc      0x1ac icomlib.a(sha256.o)
                0x020137dc                sha256_compress
 .text.psSha256Init
                0x02013988       0xb4 icomlib.a(sha256.o)
                0x02013988                psSha256Init
 .text.psSha256Update
                0x02013a3c      0x120 icomlib.a(sha256.o)
                0x02013a3c                psSha256Update
 .text.psSha256Final
                0x02013b5c      0x1c0 icomlib.a(sha256.o)
                0x02013b5c                psSha256Final
 .rodata.str1.1
                0x02013d1c       0x20 icomlib.a(sha256.o)
                                 0x48 (size before relaxing)
 .rodata.K      0x02013d3c      0x100 icomlib.a(sha256.o)
 icomlib.a:ssv_lib.o(.text .text* .rodata .rodata*)
 .text          0x02013e3c        0x0 icomlib.a(ssv_lib.o)
 .text._sbrk    0x02013e3c       0x58 icomlib.a(ssv_lib.o)
                0x02013e3c                _sbrk
 .text.check_free_mem
                0x02013e94       0x3c icomlib.a(ssv_lib.o)
                0x02013e94                check_free_mem
 .text.strlen   0x02013ed0       0x20 icomlib.a(ssv_lib.o)
                0x02013ed0                strlen
 .text.memcmp   0x02013ef0       0x38 icomlib.a(ssv_lib.o)
                0x02013ef0                memcmp
 .text.memcpy   0x02013f28       0x50 icomlib.a(ssv_lib.o)
                0x02013f28                memcpy
 .text.memset   0x02013f78       0x20 icomlib.a(ssv_lib.o)
                0x02013f78                memset
 .text.strncpy  0x02013f98       0x44 icomlib.a(ssv_lib.o)
                0x02013f98                strncpy
 .text.strcmp   0x02013fdc       0x30 icomlib.a(ssv_lib.o)
                0x02013fdc                strcmp
 .text.strcat   0x0201400c       0x30 icomlib.a(ssv_lib.o)
                0x0201400c                strcat
 .text.strtok   0x0201403c       0xa0 icomlib.a(ssv_lib.o)
                0x0201403c                strtok
 .text.dbg_running_in_irq
                0x020140dc       0x18 icomlib.a(ssv_lib.o)
                0x020140dc                dbg_running_in_irq
 .rodata.str1.1
                0x020140f4       0x5f icomlib.a(ssv_lib.o)
 icomlib.a:aes.o(.text .text* .rodata .rodata*)
 .text          0x02014153        0x0 icomlib.a(aes.o)
 *fill*         0x02014153        0x1 
 .text.setup_mix
                0x02014154       0x4c icomlib.a(aes.o)
 .text.setup_mix2
                0x020141a0       0x58 icomlib.a(aes.o)
 .text.psAesEncryptBlock.part.0
                0x020141f8      0x378 icomlib.a(aes.o)
 .text.psAesDecryptBlock.part.1
                0x02014570      0x378 icomlib.a(aes.o)
 .text.pspadding_enc
                0x020148e8       0xb8 icomlib.a(aes.o)
                0x020148e8                pspadding_enc
 .text.pspadding_dec
                0x020149a0       0xf0 icomlib.a(aes.o)
                0x020149a0                pspadding_dec
 .text.psAesInitKey
                0x02014a90      0x404 icomlib.a(aes.o)
                0x02014a90                psAesInitKey
 .text.psAesInit
                0x02014e94       0x88 icomlib.a(aes.o)
                0x02014e94                psAesInit
 .text.psAesEncryptBlock
                0x02014f1c       0x18 icomlib.a(aes.o)
                0x02014f1c                psAesEncryptBlock
 .text.psAesEncrypt
                0x02014f34       0xe0 icomlib.a(aes.o)
                0x02014f34                psAesEncrypt
 .text.psAesDecryptBlock
                0x02015014       0x18 icomlib.a(aes.o)
                0x02015014                psAesDecryptBlock
 .text.psAesDecrypt
                0x0201502c      0x100 icomlib.a(aes.o)
                0x0201502c                psAesDecrypt
 .text.AES_convert_key2
                0x0201512c       0xc4 icomlib.a(aes.o)
                0x0201512c                AES_convert_key2
 .text.aes_wrap2
                0x020151f0       0xe0 icomlib.a(aes.o)
                0x020151f0                aes_wrap2
 .text.aes_unwrap2
                0x020152d0      0x140 icomlib.a(aes.o)
                0x020152d0                aes_unwrap2
 .rodata.str1.1
                0x02015410       0x12 icomlib.a(aes.o)
 *fill*         0x02015422        0x2 
 .rodata.TD0    0x02015424      0x400 icomlib.a(aes.o)
 .rodata.TE0    0x02015824      0x400 icomlib.a(aes.o)
 .rodata.rcon   0x02015c24       0x28 icomlib.a(aes.o)
 .rodata.Td4    0x02015c4c      0x410 icomlib.a(aes.o)
 .rodata.Te4    0x0201605c      0x400 icomlib.a(aes.o)
 icomlib.a:sha1ssl.o(.text .text* .rodata .rodata*)
 .text          0x0201645c        0x0 icomlib.a(sha1ssl.o)
 .text.sha1_compress
                0x0201645c      0x2a4 icomlib.a(sha1ssl.o)
                0x0201645c                sha1_compress
 .text.psSha1Init
                0x02016700       0x90 icomlib.a(sha1ssl.o)
                0x02016700                psSha1Init
 .text.psSha1Update
                0x02016790       0xe0 icomlib.a(sha1ssl.o)
                0x02016790                psSha1Update
 .text.psSha1Final
                0x02016870      0x18c icomlib.a(sha1ssl.o)
                0x02016870                psSha1Final
 .rodata.str1.1
                0x020169fc       0x3c icomlib.a(sha1ssl.o)
 *(.text.process_thread*)
                0x02016a38                . = ALIGN (0x4)
                0x02000000                _tbeg_dst = ORIGIN (ram)
                0x0304a708                _sitxt3 = (LOADADDR (prog_in_flash) + SIZEOF (prog_in_flash))
                0x0304a708                _tbeg_src = LOADADDR (prog_in_sram)
                0x02016a38                _tend_dst = (_tbeg_dst + SIZEOF (prog_in_sram))

.ARM            0x02016a38        0x8 load address 0x03061140
 *(.ARM.exidx*)
 .ARM.exidx     0x02016a38        0x8 /usr/bin/../lib/gcc/arm-none-eabi/4.8.4/libgcc.a(_divdi3.o)
 .ARM.exidx     0x02016a40        0x0 /usr/bin/../lib/gcc/arm-none-eabi/4.8.4/libgcc.a(_udivdi3.o)
                                  0x8 (size before relaxing)
                0x02016a40                _tend_dst = .

.data           0x02016a40     0x1628 load address 0x03061148
                0x02016a40                _dbeg_dst = .
 *(EXCLUDE_FILE(icomlib.a:boot-hiflying.o) .data)
 .data          0x02016a40        0x0 /tmp/ccMTaEw1.o
 .data          0x02016a40        0x0 /tmp/ccSraQUE.o
 .data          0x02016a40        0x0 ssv6060-main.o
 .data          0x02016a40        0x0 icomlib.a(printf.o)
 .data          0x02016a40        0x0 icomlib.a(contiki-main.o)
 .data          0x02016a40        0x0 icomlib.a(drv_uart.o)
 .data          0x02016a40        0x0 icomlib.a(hw_init.o)
 .data          0x02016a40        0x0 icomlib.a(hw_regs_api.o)
 .data          0x02016a40        0x0 icomlib.a(ssv_lib.o)
 .data          0x02016a40        0x0 icomlib.a(systemconf.o)
 .data          0x02016a40        0x0 icomlib.a(wdog_api.o)
 .data          0x02016a40        0x0 icomlib.a(smartSetting.o)
 .data          0x02016a40        0x0 icomlib.a(smartConf.o)
 .data          0x02016a40        0x0 icomlib.a(bsp.o)
 .data          0x02016a40        0x0 icomlib.a(crypthw.o)
 .data          0x02016a40        0x0 icomlib.a(dbg-atcmd-api.o)
 .data          0x02016a40        0x0 icomlib.a(drv_mac.o)
 .data          0x02016a40        0x0 icomlib.a(drv_phy.o)
 .data          0x02016a40        0x0 icomlib.a(drv_pktbuf.o)
 .data          0x02016a40        0x0 icomlib.a(drv_pktbuf_slow)
 .data          0x02016a40        0x0 icomlib.a(ieee80211_mgmt.)
 .data          0x02016a40        0x0 icomlib.a(ieee80211_rdc.o)
 .data          0x02016a40        0x0 icomlib.a(irq.o)
 .data          0x02016a40        0x0 icomlib.a(netstack.o)
 .data          0x02016a40        0x0 icomlib.a(powersave.o)
 .data          0x02016a40        0x0 icomlib.a(rate_control.o)
 .data          0x02016a40        0x0 icomlib.a(soft_ap.o)
 .data          0x02016a40        0x0 icomlib.a(ssv6200_rx.o)
 .data          0x02016a40        0x0 icomlib.a(ssvradio.o)
 .data          0x02016a40        0x0 icomlib.a(wpa.o)
 .data          0x02016a40        0x0 icomlib.a(sys_status_api.)
 .data          0x02016a40        0x0 icomlib.a(aes.o)
 .data          0x02016a40        0x0 icomlib.a(arc4.o)
 .data          0x02016a40        0x0 icomlib.a(wep.o)
 .data          0x02016a40        0x0 icomlib.a(autostart.o)
 .data          0x02016a40        0x0 icomlib.a(etimer.o)
 .data          0x02016a40        0x0 icomlib.a(process.o)
 .data          0x02016a40        0x0 icomlib.a(random.o)
 .data          0x02016a40        0x0 icomlib.a(timer.o)
 .data          0x02016a40        0x0 icomlib.a(atcmdlib.o)
 .data          0x02016a40        0x0 icomlib.a(atcmd_icomm.o)
 .data          0x02016a40        0x0 icomlib.a(clock.o)
 .data          0x02016a40        0x0 icomlib.a(console.o)
 .data          0x02016a40        0x0 icomlib.a(drv_flash.o)
 .data          0x02016a40        0x0 icomlib.a(drv_pmu.o)
 .data          0x02016a40        0x0 icomlib.a(drv_timer.o)
 .data          0x02016a40        0x0 icomlib.a(drv_wdog.o)
 .data          0x02016a40        0x0 icomlib.a(fence.o)
 .data          0x02016a40        0x0 icomlib.a(flash_api.o)
 .data          0x02016a40        0x0 icomlib.a(smartComm.o)
 .data          0x02016a40        0x0 icomlib.a(ssv_lib_slow.o)
 .data          0x02016a40        0x0 icomlib.a(swpwm.o)
 .data          0x02016a40        0x0 icomlib.a(userSmart.o)
 .data          0x02016a40        0x0 icomlib.a(hash_alg.o)
 .data          0x02016a40        0x0 icomlib.a(hmac_md5.o)
 .data          0x02016a40        0x0 icomlib.a(hmac_sha1.o)
 .data          0x02016a40        0x0 icomlib.a(ieee80211_mac.o)
 .data          0x02016a40        0x0 icomlib.a(ieee80211_net.o)
 .data          0x02016a40        0x0 icomlib.a(sha1.o)
 .data          0x02016a40        0x0 icomlib.a(ssv6200_tx.o)
 .data          0x02016a40        0x0 icomlib.a(md5.o)
 .data          0x02016a40        0x0 icomlib.a(shell-ping.o)
 .data          0x02016a40        0x0 icomlib.a(drv_fence.o)
 .data          0x02016a40        0x0 icomlib.a(drv_gpio.o)
 .data          0x02016a40        0x0 icomlib.a(gpio_api.o)
 .data          0x02016a40        0x0 icomlib.a(drv_mbox.o)
 .data          0x02016a40        0x0 icomlib.a(EAPOL.o)
 .data          0x02016a40        0x0 icomapps.a(atcmd_mqtt.o)
 .data          0x02016a40        0x0 icomapps.a(atcmd.o)
 .data          0x02016a40        0x0 icomapps.a(bsp_info.o)
 .data          0x02016a40        0x0 icomapps.a(data_buff.o)
 .data          0x02016a40        0x0 icomapps.a(hx_sta_conn.o)
 .data          0x02016a40        0x0 icomapps.a(iperf_cmd.o)
 .data          0x02016a40        0x0 icomapps.a(key.o)
 .data          0x02016a40        0x0 icomapps.a(MyATCmd.o)
 .data          0x02016a40        0x0 icomapps.a(MyThread.o)
 .data          0x02016a40        0x0 icomapps.a(ota_api.o)
 .data          0x02016a40        0x0 icomapps.a(socket_app.o)
 .data          0x02016a40        0x0 icomapps.a(soft_ap_init.o)
 .data          0x02016a40        0x0 icomapps.a(UAMisc.o)
 .data          0x02016a40        0x0 icomapps.a(UAVersion.o)
 .data          0x02016a40        0x0 icomapps.a(wifi_uart_demo.)
 .data          0x02016a40        0x0 icomapps.a(xmem.o)
 .data          0x02016a40        0x0 icomapps.a(szcloud_intf.o)
 .data          0x02016a40        0x0 icomapps.a(szcloud_uart.o)
 .data          0x02016a40        0x0 icomapps.a(hx_flash_opt.o)
 .data          0x02016a40        0x0 icomapps.a(MyCustSave.o)
 .data          0x02016a40        0x0 icomapps.a(net.o)
 .data          0x02016a40        0x0 icomapps.a(uart.o)
 .data          0x02016a40        0x0 contikilib.a(mqtt.o)
 .data          0x02016a40        0x0 contikilib.a(ntp_client.o)
 .data          0x02016a40        0x0 contikilib.a(cfs-coffee.o)
 .data          0x02016a40        0x0 contikilib.a(dhcp_process.o)
 .data          0x02016a40        0x0 contikilib.a(dhcps.o)
 .data          0x02016a40        0x0 contikilib.a(list.o)
 .data          0x02016a40        0x0 contikilib.a(resolv.o)
 .data          0x02016a40        0x0 contikilib.a(simple-udp.o)
 .data          0x02016a40        0x0 contikilib.a(socket_driver.o)
 .data          0x02016a40        0x0 contikilib.a(tcp-socket.o)
 .data          0x02016a40        0x0 contikilib.a(tcpip.o)
 .data          0x02016a40        0x0 contikilib.a(uip_arp.o)
 .data          0x02016a40        0x0 contikilib.a(uip.o)
 .data          0x02016a40        0x0 contikilib.a(uiplib.o)
 .data          0x02016a40        0x0 contikilib.a(uip-udp-packet.)
 .data          0x02016a40        0x0 contikilib.a(dhcpc.o)
 .data          0x02016a40        0x0 icomlib.a(ctimer.o)
 .data          0x02016a40        0x0 icomlib.a(pwm_api.o)
 .data          0x02016a40        0x0 icomlib.a(serial_api.o)
 .data          0x02016a40        0x0 icomlib.a(ssl_api.o)
 .data          0x02016a40        0x0 icomlib.a(osdep.o)
 .data          0x02016a40        0x0 icomlib.a(tls.o)
 .data          0x02016a40        0x0 icomlib.a(matrixssl.o)
 .data          0x02016a40        0x0 icomlib.a(matrixsslApi.o)
 .data          0x02016a40        0x0 icomlib.a(sslDecode.o)
 .data          0x02016a40        0x0 icomlib.a(sslEncode.o)
 .data          0x02016a40        0x0 icomlib.a(drv_pwm.o)
 .data          0x02016a40        0x0 icomlib.a(corelib.o)
 .data          0x02016a40        0x0 icomlib.a(prng.o)
 .data          0x02016a40        0x0 icomlib.a(sha1ssl.o)
 .data          0x02016a40        0x0 icomlib.a(sha256.o)
 .data          0x02016a40        0x0 icomlib.a(hmac.o)
 .data          0x02016a40        0x0 icomlib.a(pstm.o)
 .data          0x02016a40        0x0 icomlib.a(pstmmonreduce.o)
 .data          0x02016a40        0x0 icomlib.a(pstmsqrcomba.o)
 .data          0x02016a40        0x0 icomlib.a(pstmmulcomba.o)
 .data          0x02016a40        0x0 icomlib.a(pubkey.o)
 .data          0x02016a40        0x0 icomlib.a(rsa.o)
 .data          0x02016a40        0x0 icomlib.a(pkcs.o)
 .data          0x02016a40        0x0 icomlib.a(asn1.o)
 .data          0x02016a40        0x0 icomlib.a(base64.o)
 .data          0x02016a40        0x0 icomlib.a(x509.o)
 .data          0x02016a40        0x0 icomlib.a(prf.o)
 .data          0x02016a40        0x0 icomlib.a(cipherSuite.o)
 .data          0x02016a40        0x0 icomlib.a(hsHash.o)
 .data          0x02016a40        0x0 icomlib.a(time.o)
 .data          0x02016a40        0x0 ./thirdPartyLib/libdtlib.a(common_general_)
 .data          0x02016a40        0x0 ./thirdPartyLib/libdtlib.a(udp_listen.o)
 .data          0x02016a40        0x0 ./thirdPartyLib/libdtlib.a(dt_mqtt.o)
 .data          0x02016a40        0x0 ./thirdPartyLib/libdtlib.a(dt_tcp_serve.o)
 .data          0x02016a40        0x0 /usr/bin/../lib/gcc/arm-none-eabi/4.8.4/libgcc.a(_udivsi3.o)
 .data          0x02016a40        0x0 /usr/bin/../lib/gcc/arm-none-eabi/4.8.4/libgcc.a(_divsi3.o)
 .data          0x02016a40        0x0 /usr/bin/../lib/gcc/arm-none-eabi/4.8.4/libgcc.a(_dvmd_tls.o)
 .data          0x02016a40        0x0 /usr/bin/../lib/gcc/arm-none-eabi/4.8.4/libgcc.a(_aeabi_ldivmod.o)
 .data          0x02016a40        0x0 /usr/bin/../lib/gcc/arm-none-eabi/4.8.4/libgcc.a(_aeabi_uldivmod.o)
 .data          0x02016a40        0x0 /usr/bin/../lib/gcc/arm-none-eabi/4.8.4/libgcc.a(bpabi.o)
 .data          0x02016a40        0x0 /usr/bin/../lib/gcc/arm-none-eabi/4.8.4/libgcc.a(_divdi3.o)
 .data          0x02016a40        0x0 /usr/bin/../lib/gcc/arm-none-eabi/4.8.4/libgcc.a(_udivdi3.o)
 .data          0x02016a40        0x0 /usr/bin/../lib/gcc/arm-none-eabi/4.8.4/libgcc.a(_clzsi2.o)
 .data          0x02016a40        0x0 /usr/bin/../lib/gcc/arm-none-eabi/4.8.4/../../../../arm-none-eabi/lib/libg_s.a(lib_a-atoi.o)
 .data          0x02016a40        0x0 /usr/bin/../lib/gcc/arm-none-eabi/4.8.4/../../../../arm-none-eabi/lib/libg_s.a(lib_a-ctype_.o)
 .data          0x02016a40        0x0 /usr/bin/../lib/gcc/arm-none-eabi/4.8.4/../../../../arm-none-eabi/lib/libg_s.a(lib_a-errno.o)
 .data          0x02016a40        0x0 /usr/bin/../lib/gcc/arm-none-eabi/4.8.4/../../../../arm-none-eabi/lib/libg_s.a(lib_a-impure.o)
 .data          0x02016a40        0x0 /usr/bin/../lib/gcc/arm-none-eabi/4.8.4/../../../../arm-none-eabi/lib/libg_s.a(lib_a-malloc.o)
 .data          0x02016a40        0x0 /usr/bin/../lib/gcc/arm-none-eabi/4.8.4/../../../../arm-none-eabi/lib/libg_s.a(lib_a-memmove.o)
 .data          0x02016a40        0x0 /usr/bin/../lib/gcc/arm-none-eabi/4.8.4/../../../../arm-none-eabi/lib/libg_s.a(lib_a-mstats.o)
 .data          0x02016a40        0x0 /usr/bin/../lib/gcc/arm-none-eabi/4.8.4/../../../../arm-none-eabi/lib/libg_s.a(lib_a-nano-freer.o)
 .data          0x02016a40        0x0 /usr/bin/../lib/gcc/arm-none-eabi/4.8.4/../../../../arm-none-eabi/lib/libg_s.a(lib_a-nano-mallinfor.o)
 .data          0x02016a40        0x0 /usr/bin/../lib/gcc/arm-none-eabi/4.8.4/../../../../arm-none-eabi/lib/libg_s.a(lib_a-nano-mallocr.o)
 .data          0x02016a40        0x0 /usr/bin/../lib/gcc/arm-none-eabi/4.8.4/../../../../arm-none-eabi/lib/libg_s.a(lib_a-nano-malloptr.o)
 .data          0x02016a40        0x0 /usr/bin/../lib/gcc/arm-none-eabi/4.8.4/../../../../arm-none-eabi/lib/libg_s.a(lib_a-nano-mallstatsr.o)
 .data          0x02016a40        0x0 /usr/bin/../lib/gcc/arm-none-eabi/4.8.4/../../../../arm-none-eabi/lib/libg_s.a(lib_a-rand.o)
 .data          0x02016a40        0x0 /usr/bin/../lib/gcc/arm-none-eabi/4.8.4/../../../../arm-none-eabi/lib/libg_s.a(lib_a-realloc.o)
 .data          0x02016a40        0x0 /usr/bin/../lib/gcc/arm-none-eabi/4.8.4/../../../../arm-none-eabi/lib/libg_s.a(lib_a-sbrkr.o)
 .data          0x02016a40        0x0 /usr/bin/../lib/gcc/arm-none-eabi/4.8.4/../../../../arm-none-eabi/lib/libg_s.a(lib_a-strcasecmp.o)
 .data          0x02016a40        0x0 /usr/bin/../lib/gcc/arm-none-eabi/4.8.4/../../../../arm-none-eabi/lib/libg_s.a(lib_a-strchr.o)
 .data          0x02016a40        0x0 /usr/bin/../lib/gcc/arm-none-eabi/4.8.4/../../../../arm-none-eabi/lib/libg_s.a(lib_a-strcpy.o)
 .data          0x02016a40        0x0 /usr/bin/../lib/gcc/arm-none-eabi/4.8.4/../../../../arm-none-eabi/lib/libg_s.a(lib_a-strncmp.o)
 .data          0x02016a40        0x0 /usr/bin/../lib/gcc/arm-none-eabi/4.8.4/../../../../arm-none-eabi/lib/libg_s.a(lib_a-strrchr.o)
 .data          0x02016a40        0x0 /usr/bin/../lib/gcc/arm-none-eabi/4.8.4/../../../../arm-none-eabi/lib/libg_s.a(lib_a-strstr.o)
 .data          0x02016a40        0x0 /usr/bin/../lib/gcc/arm-none-eabi/4.8.4/../../../../arm-none-eabi/lib/libg_s.a(lib_a-strtol.o)
 .data          0x02016a40        0x0 /usr/bin/../lib/gcc/arm-none-eabi/4.8.4/../../../../arm-none-eabi/lib/libg_s.a(lib_a-strtoul.o)
 .data          0x02016a40        0x0 /usr/bin/../lib/gcc/arm-none-eabi/4.8.4/../../../../arm-none-eabi/lib/libg_s.a(lib_a-findfp.o)
 .data          0x02016a40        0x0 /usr/bin/../lib/gcc/arm-none-eabi/4.8.4/../../../../arm-none-eabi/lib/libg_s.a(lib_a-fprintf.o)
 .data          0x02016a40        0x0 /usr/bin/../lib/gcc/arm-none-eabi/4.8.4/../../../../arm-none-eabi/lib/libg_s.a(lib_a-fwalk.o)
 .data          0x02016a40        0x0 /usr/bin/../lib/gcc/arm-none-eabi/4.8.4/../../../../arm-none-eabi/lib/libg_s.a(lib_a-nano-reallocr.o)
 .data          0x02016a40        0x0 /usr/bin/../lib/gcc/arm-none-eabi/4.8.4/../../../../arm-none-eabi/lib/libg_s.a(lib_a-reent.o)
 .data          0x02016a40        0x0 /usr/bin/../lib/gcc/arm-none-eabi/4.8.4/../../../../arm-none-eabi/lib/libg_s.a(lib_a-stdio.o)
 .data          0x02016a40        0x0 /usr/bin/../lib/gcc/arm-none-eabi/4.8.4/../../../../arm-none-eabi/lib/libg_s.a(lib_a-vfprintf.o)
 .data          0x02016a40        0x0 /usr/bin/../lib/gcc/arm-none-eabi/4.8.4/../../../../arm-none-eabi/lib/libg_s.a(lib_a-vfprintf_i.o)
 .data          0x02016a40        0x0 /usr/bin/../lib/gcc/arm-none-eabi/4.8.4/../../../../arm-none-eabi/lib/libg_s.a(lib_a-wbuf.o)
 .data          0x02016a40        0x0 /usr/bin/../lib/gcc/arm-none-eabi/4.8.4/../../../../arm-none-eabi/lib/libg_s.a(lib_a-writer.o)
 .data          0x02016a40        0x0 /usr/bin/../lib/gcc/arm-none-eabi/4.8.4/../../../../arm-none-eabi/lib/libg_s.a(lib_a-wsetup.o)
 .data          0x02016a40        0x0 /usr/bin/../lib/gcc/arm-none-eabi/4.8.4/../../../../arm-none-eabi/lib/libg_s.a(lib_a-closer.o)
 .data          0x02016a40        0x0 /usr/bin/../lib/gcc/arm-none-eabi/4.8.4/../../../../arm-none-eabi/lib/libg_s.a(lib_a-fflush.o)
 .data          0x02016a40        0x0 /usr/bin/../lib/gcc/arm-none-eabi/4.8.4/../../../../arm-none-eabi/lib/libg_s.a(lib_a-fvwrite.o)
 .data          0x02016a40        0x0 /usr/bin/../lib/gcc/arm-none-eabi/4.8.4/../../../../arm-none-eabi/lib/libg_s.a(lib_a-lseekr.o)
 .data          0x02016a40        0x0 /usr/bin/../lib/gcc/arm-none-eabi/4.8.4/../../../../arm-none-eabi/lib/libg_s.a(lib_a-makebuf.o)
 .data          0x02016a40        0x0 /usr/bin/../lib/gcc/arm-none-eabi/4.8.4/../../../../arm-none-eabi/lib/libg_s.a(lib_a-memchr-stub.o)
 .data          0x02016a40        0x0 /usr/bin/../lib/gcc/arm-none-eabi/4.8.4/../../../../arm-none-eabi/lib/libg_s.a(lib_a-nano-msizer.o)
 .data          0x02016a40        0x0 /usr/bin/../lib/gcc/arm-none-eabi/4.8.4/../../../../arm-none-eabi/lib/libg_s.a(lib_a-readr.o)
 .data          0x02016a40        0x0 /usr/bin/../lib/gcc/arm-none-eabi/4.8.4/../../../../arm-none-eabi/lib/libg_s.a(lib_a-fstatr.o)
 .data          0x02016a40        0x0 /usr/bin/../lib/gcc/arm-none-eabi/4.8.4/../../../../arm-none-eabi/lib/libg_s.a(lib_a-isattyr.o)
 .data          0x02016a40        0x0 /usr/bin/../lib/gcc/arm-none-eabi/4.8.4/../../../../arm-none-eabi/lib/libnosys.a(close.o)
 .data          0x02016a40        0x0 /usr/bin/../lib/gcc/arm-none-eabi/4.8.4/../../../../arm-none-eabi/lib/libnosys.a(fstat.o)
 .data          0x02016a40        0x0 /usr/bin/../lib/gcc/arm-none-eabi/4.8.4/../../../../arm-none-eabi/lib/libnosys.a(isatty.o)
 .data          0x02016a40        0x0 /usr/bin/../lib/gcc/arm-none-eabi/4.8.4/../../../../arm-none-eabi/lib/libnosys.a(lseek.o)
 .data          0x02016a40        0x0 /usr/bin/../lib/gcc/arm-none-eabi/4.8.4/../../../../arm-none-eabi/lib/libnosys.a(read.o)
 .data          0x02016a40        0x0 /usr/bin/../lib/gcc/arm-none-eabi/4.8.4/../../../../arm-none-eabi/lib/libnosys.a(write.o)
 *(EXCLUDE_FILE(icomlib.a:boot-hiflying.o) .data*)
 .data.main_process
                0x02016a40       0x10 ssv6060-main.o
                0x02016a40                main_process
 .data.atcmd_info_tbl
                0x02016a50      0x120 ssv6060-main.o
                0x02016a50                atcmd_info_tbl
 .data.g_aLogEnable
                0x02016b70       0x20 icomlib.a(printf.o)
                0x02016b70                g_aLogEnable
 .data.phy_ll_length_tbl
                0x02016b90       0x20 icomlib.a(hw_init.o)
                0x02016b90                phy_ll_length_tbl
 .data.phy_info_tbl
                0x02016bb0       0x9c icomlib.a(hw_init.o)
                0x02016bb0                phy_info_tbl
 .data.phy_index_tbl
                0x02016c4c       0x9c icomlib.a(hw_init.o)
                0x02016c4c                phy_index_tbl
 .data.heap_end.4973
                0x02016ce8        0x4 icomlib.a(ssv_lib.o)
 .data.watchdog_process
                0x02016cec       0x10 icomlib.a(wdog_api.o)
                0x02016cec                watchdog_process
 .data.magicNum
                0x02016cfc        0xb icomlib.a(smartConf.o)
                0x02016cfc                magicNum
 .data.rc4Key   0x02016d07        0x4 icomlib.a(smartConf.o)
                0x02016d07                rc4Key
 .data.poly     0x02016d0b        0x1 icomlib.a(smartConf.o)
                0x02016d0b                poly
 .data.smart_conf_process
                0x02016d0c       0x10 icomlib.a(smartConf.o)
                0x02016d0c                smart_conf_process
 .data.defaultN
                0x02016d1c        0x1 icomlib.a(dbg-atcmd-api.o)
 *fill*         0x02016d1d        0x3 
 .data.nTotalCount
                0x02016d20        0x4 icomlib.a(dbg-atcmd-api.o)
 .data.gCompensatorRun
                0x02016d24        0x1 icomlib.a(dbg-atcmd-api.o)
 .data.test_data
                0x02016d25       0x25 icomlib.a(dbg-atcmd-api.o)
                0x02016d25                test_data
 .data.curr_temperature_state
                0x02016d4a        0x1 icomlib.a(dbg-atcmd-api.o)
 *fill*         0x02016d4b        0x1 
 .data.rf_test_config
                0x02016d4c       0x28 icomlib.a(dbg-atcmd-api.o)
                0x02016d4c                rf_test_config
 .data.temperature_compensator_process
                0x02016d74       0x10 icomlib.a(dbg-atcmd-api.o)
                0x02016d74                temperature_compensator_process
 .data.gCount   0x02016d84        0x4 icomlib.a(dbg-atcmd-api.o)
 .data.defaultP
                0x02016d88        0x1 icomlib.a(dbg-atcmd-api.o)
 *fill*         0x02016d89        0x3 
 .data.nDelayMSec
                0x02016d8c        0x4 icomlib.a(dbg-atcmd-api.o)
 .data.start_tx_process
                0x02016d90       0x10 icomlib.a(dbg-atcmd-api.o)
                0x02016d90                start_tx_process
 .data.rtbl_cali_rxdc
                0x02016da0      0x104 icomlib.a(drv_phy.o)
                0x02016da0                rtbl_cali_rxdc
 .data.rtbl_cali_txlo
                0x02016ea4       0x14 icomlib.a(drv_phy.o)
                0x02016ea4                rtbl_cali_txlo
 .data.phy_cali_config_papd
                0x02016eb8       0x14 icomlib.a(drv_phy.o)
                0x02016eb8                phy_cali_config_papd
 .data.rg_rxdc_set_i
                0x02016ecc       0x40 icomlib.a(drv_phy.o)
                0x02016ecc                rg_rxdc_set_i
 .data.g_rf_config
                0x02016f0c        0xc icomlib.a(drv_phy.o)
                0x02016f0c                g_rf_config
 .data.rg_rxdc_set_q
                0x02016f18       0x40 icomlib.a(drv_phy.o)
                0x02016f18                rg_rxdc_set_q
 .data.rtbl_cali_rxrc
                0x02016f58        0xc icomlib.a(drv_phy.o)
                0x02016f58                rtbl_cali_rxrc
 .data.rtbl_cali_papd
                0x02016f64      0x1d4 icomlib.a(drv_phy.o)
                0x02016f64                rtbl_cali_papd
 .data.cali_info_tbl
                0x02017138       0xc8 icomlib.a(drv_phy.o)
                0x02017138                cali_info_tbl
 .data.rtbl_cali_tssi
                0x02017200        0xc icomlib.a(drv_phy.o)
                0x02017200                rtbl_cali_tssi
 .data.rtbl_cali_rxiq
                0x0201720c       0x14 icomlib.a(drv_phy.o)
                0x0201720c                rtbl_cali_rxiq
 .data.phyreg_tbl_recovery
                0x02017220       0x10 icomlib.a(drv_phy.o)
 .data.rtbl_cali_txiq
                0x02017230       0x14 icomlib.a(drv_phy.o)
                0x02017230                rtbl_cali_txiq
 .data.scan_channel_process
                0x02017244       0x10 icomlib.a(ieee80211_mgmt.)
                0x02017244                scan_channel_process
 .data.check_ap_cnt
                0x02017254        0x1 icomlib.a(ieee80211_mgmt.)
 *fill*         0x02017255        0x3 
 .data.beacon_process
                0x02017258       0x10 icomlib.a(ieee80211_mgmt.)
                0x02017258                beacon_process
 .data.activescan_process
                0x02017268       0x10 icomlib.a(ieee80211_mgmt.)
                0x02017268                activescan_process
 .data.bss_reconnect_process
                0x02017278       0x10 icomlib.a(ieee80211_mgmt.)
                0x02017278                bss_reconnect_process
 .data.power_wake_process
                0x02017288       0x10 icomlib.a(powersave.o)
                0x02017288                power_wake_process
 .data.nav_table
                0x02017298      0x138 icomlib.a(rate_control.o)
                0x02017298                nav_table
 .data.softap_mgm_process
                0x020173d0       0x10 icomlib.a(soft_ap.o)
                0x020173d0                softap_mgm_process
 .data.softap_tx_nulldata_process
                0x020173e0       0x10 icomlib.a(soft_ap.o)
                0x020173e0                softap_tx_nulldata_process
 .data.next_txqueue
                0x020173f0        0x4 icomlib.a(ssvradio.o)
                0x020173f0                next_txqueue
 .data.ssv6200_radio_receive_process
                0x020173f4       0x10 icomlib.a(ssvradio.o)
                0x020173f4                ssv6200_radio_receive_process
 .data.broadcast_mac.6733
                0x02017404        0x6 icomlib.a(ssvradio.o)
 *fill*         0x0201740a        0x2 
 .data.gKeyLedMode
                0x0201740c        0x4 icomlib.a(sys_status_api.)
                0x0201740c                gKeyLedMode
 .data.etimer_process
                0x02017410       0x10 icomlib.a(etimer.o)
                0x02017410                etimer_process
 .data.backEcho
                0x02017420        0x1 icomlib.a(atcmdlib.o)
                0x02017420                backEcho
 *fill*         0x02017421        0x3 
 .data.Cabrio_ate_process
                0x02017424       0x10 icomlib.a(atcmd_icomm.o)
                0x02017424                Cabrio_ate_process
 .data.wifistatus_process
                0x02017434       0x10 icomlib.a(atcmd_icomm.o)
                0x02017434                wifistatus_process
 *fill*         0x02017444        0x4 
 .data.current_ntp_clock
                0x02017448        0x8 icomlib.a(clock.o)
 .data.current_ntp_seconds
                0x02017450        0x4 icomlib.a(clock.o)
 .data.smart_conf_ack
                0x02017454       0x10 icomlib.a(smartComm.o)
                0x02017454                smart_conf_ack
 .data.PADDING  0x02017464       0x40 icomlib.a(md5.o)
 .data.g_uip_icmp_buf
                0x020174a4        0x4 icomlib.a(shell-ping.o)
                0x020174a4                g_uip_icmp_buf
 .data.shell_ping_process
                0x020174a8       0x10 icomlib.a(shell-ping.o)
                0x020174a8                shell_ping_process
 .data.g_uip_ip_buf
                0x020174b8        0x4 icomlib.a(shell-ping.o)
                0x020174b8                g_uip_ip_buf
 .data.GPIOINTRSEL
                0x020174bc       0x34 icomlib.a(drv_gpio.o)
                0x020174bc                GPIOINTRSEL
 .data.GPIOREGADDR
                0x020174f0       0x34 icomlib.a(drv_gpio.o)
                0x020174f0                GPIOREGADDR
 .data.mqtt_client_process
                0x02017524       0x10 icomapps.a(atcmd_mqtt.o)
                0x02017524                mqtt_client_process
 .data.atcmdicomm_info_tbl
                0x02017534      0x624 icomapps.a(atcmd.o)
                0x02017534                atcmdicomm_info_tbl
 .data.rf_event_process
                0x02017b58       0x10 icomapps.a(atcmd.o)
                0x02017b58                rf_event_process
 .data.poll_tx_process
                0x02017b68       0x10 icomapps.a(atcmd.o)
                0x02017b68                poll_tx_process
 .data.nslookup_process
                0x02017b78       0x10 icomapps.a(atcmd.o)
                0x02017b78                nslookup_process
 .data.http_request_process
                0x02017b88       0x10 icomapps.a(atcmd.o)
                0x02017b88                http_request_process
 .data.hx_sta_auto_conn_ap
                0x02017b98       0x10 icomapps.a(hx_sta_conn.o)
                0x02017b98                hx_sta_auto_conn_ap
 .data.F_Proc_KEY
                0x02017ba8       0x10 icomapps.a(key.o)
                0x02017ba8                F_Proc_KEY
 .data.R_saDbgVal
                0x02017bb8       0x30 icomapps.a(MyATCmd.o)
                0x02017bb8                R_saDbgVal
 .data.F_Proc_Module_IO_Indicator
                0x02017be8       0x10 icomapps.a(MyThread.o)
                0x02017be8                F_Proc_Module_IO_Indicator
 .data.F_Proc_MyInit_OK
                0x02017bf8       0x10 icomapps.a(MyThread.o)
                0x02017bf8                F_Proc_MyInit_OK
 .data.F_Proc_Delay
                0x02017c08       0x10 icomapps.a(MyThread.o)
                0x02017c08                F_Proc_Delay
 .data.F_Proc_MyInit
                0x02017c18       0x10 icomapps.a(MyThread.o)
                0x02017c18                F_Proc_MyInit
 .data.F_Proc_IOTest
                0x02017c28       0x10 icomapps.a(MyThread.o)
                0x02017c28                F_Proc_IOTest
 .data.R_szIMEI
                0x02017c38       0x10 icomapps.a(MyThread.o)
                0x02017c38                R_szIMEI
 .data.auto_reboot_process
                0x02017c48       0x10 icomapps.a(ota_api.o)
                0x02017c48                auto_reboot_process
 .data.gclientota
                0x02017c58        0x4 icomapps.a(ota_api.o)
                0x02017c58                gclientota
 .data.https_client_otaProcess
                0x02017c5c       0x10 icomapps.a(ota_api.o)
                0x02017c5c                https_client_otaProcess
 .data.ota_connect_process
                0x02017c6c       0x10 icomapps.a(ota_api.o)
                0x02017c6c                ota_connect_process
 .data.ota_nslookup_process
                0x02017c7c       0x10 icomapps.a(ota_api.o)
                0x02017c7c                ota_nslookup_process
 .data.tcp_client_otaProcess
                0x02017c8c       0x10 icomapps.a(ota_api.o)
                0x02017c8c                tcp_client_otaProcess
 .data.ota_updateProcess
                0x02017c9c       0x10 icomapps.a(ota_api.o)
                0x02017c9c                ota_updateProcess
 .data.discover_process
                0x02017cac       0x10 icomapps.a(socket_app.o)
                0x02017cac                discover_process
 .data.udp_server_discoverProcess
                0x02017cbc       0x10 icomapps.a(socket_app.o)
                0x02017cbc                udp_server_discoverProcess
 .data.tcp_client_smartProcess
                0x02017ccc       0x10 icomapps.a(socket_app.o)
                0x02017ccc                tcp_client_smartProcess
 .data.tcp_smartlink_process
                0x02017cdc       0x10 icomapps.a(socket_app.o)
                0x02017cdc                tcp_smartlink_process
 .data.wifiUartDemo_process
                0x02017cec       0x10 icomapps.a(wifi_uart_demo.)
                0x02017cec                wifiUartDemo_process
 .data.tcp_server_wifiUartProcess
                0x02017cfc       0x10 icomapps.a(wifi_uart_demo.)
                0x02017cfc                tcp_server_wifiUartProcess
 .data.szcloud_process
                0x02017d0c       0x10 icomapps.a(szcloud_intf.o)
                0x02017d0c                szcloud_process
 .data.hekr_nslookup_process
                0x02017d1c       0x10 icomapps.a(net.o)
                0x02017d1c                hekr_nslookup_process
 .data.blk.8825
                0x02017d2c        0x1 icomapps.a(net.o)
 .data.hx_data_flag
                0x02017d2d        0x1 icomapps.a(uart.o)
 *fill*         0x02017d2e        0x2 
 .data.hx_frame_length
                0x02017d30        0x4 icomapps.a(uart.o)
 .data.hx_atpt_time
                0x02017d34        0x4 icomapps.a(uart.o)
 .data.hx_gpio1_mode
                0x02017d38        0x4 icomapps.a(uart.o)
 .data.hx_uart_info
                0x02017d3c       0x10 icomapps.a(uart.o)
 .data.hx_esp_time
                0x02017d4c        0x4 icomapps.a(uart.o)
 .data.hx_esp_char
                0x02017d50        0x4 icomapps.a(uart.o)
 .data.mqtt_process
                0x02017d54       0x10 contikilib.a(mqtt.o)
                0x02017d54                mqtt_process
 .data.sslmqttproc
                0x02017d64       0x10 contikilib.a(mqtt.o)
                0x02017d64                sslmqttproc
 .data.time_offset
                0x02017d74        0x2 contikilib.a(ntp_client.o)
 *fill*         0x02017d76        0x2 
 .data.ntp_connectPprocess
                0x02017d78       0x10 contikilib.a(ntp_client.o)
                0x02017d78                ntp_connectPprocess
 .data.ntp_nslookup_process
                0x02017d88       0x10 contikilib.a(ntp_client.o)
                0x02017d88                ntp_nslookup_process
 .data.ntp_client_Process
                0x02017d98       0x10 contikilib.a(ntp_client.o)
                0x02017d98                ntp_client_Process
 .data.cabrio_fs_marker
                0x02017da8       0x20 contikilib.a(cfs-coffee.o)
                0x02017da8                cabrio_fs_marker
 .data.dhcp_process
                0x02017dc8       0x10 contikilib.a(dhcp_process.o)
                0x02017dc8                dhcp_process
 .data.dhcp_server_process
                0x02017dd8       0x10 contikilib.a(dhcps.o)
                0x02017dd8                dhcp_server_process
 .data.resolv_process
                0x02017de8       0x10 contikilib.a(resolv.o)
                0x02017de8                resolv_process
 .data.resolv_default_dns_server
                0x02017df8        0x4 contikilib.a(resolv.o)
 .data.simple_udp_process
                0x02017dfc       0x10 contikilib.a(simple-udp.o)
                0x02017dfc                simple_udp_process
 .data.tcp_driver_process
                0x02017e0c       0x10 contikilib.a(socket_driver.o)
                0x02017e0c                tcp_driver_process
 .data.udp_driver_process
                0x02017e1c       0x10 contikilib.a(socket_driver.o)
                0x02017e1c                udp_driver_process
 .data.tcp_socket_process
                0x02017e2c       0x10 contikilib.a(tcp-socket.o)
                0x02017e2c                tcp_socket_process
 .data.TCP_arpcheck_process
                0x02017e3c       0x10 contikilib.a(tcpip.o)
                0x02017e3c                TCP_arpcheck_process
 .data.tcpip_process
                0x02017e4c       0x10 contikilib.a(tcpip.o)
                0x02017e4c                tcpip_process
 .data.ARPBUF   0x02017e5c        0x4 contikilib.a(uip_arp.o)
                0x02017e5c                ARPBUF
 .data.IPARPBUF
                0x02017e60        0x4 contikilib.a(uip_arp.o)
                0x02017e60                IPARPBUF
 .data.arptable_polling_process
                0x02017e64       0x10 contikilib.a(uip_arp.o)
                0x02017e64                arptable_polling_process
 .data.get_gatewaymac_process
                0x02017e74       0x10 contikilib.a(uip_arp.o)
                0x02017e74                get_gatewaymac_process
 .data.UIP_TCP_BUF
                0x02017e84        0x4 contikilib.a(uip.o)
                0x02017e84                UIP_TCP_BUF
 .data.UDPBUF   0x02017e88        0x4 contikilib.a(uip.o)
                0x02017e88                UDPBUF
 .data.ICMPBUF  0x02017e8c        0x4 contikilib.a(uip.o)
                0x02017e8c                ICMPBUF
 .data.BUF      0x02017e90        0x4 contikilib.a(uip.o)
                0x02017e90                BUF
 .data.UIP_IP_BUF
                0x02017e94        0x4 contikilib.a(uip.o)
                0x02017e94                UIP_IP_BUF
 .data.ctimer_process
                0x02017e98       0x10 icomlib.a(ctimer.o)
                0x02017e98                ctimer_process
 .data.sslhandlerprocess
                0x02017ea8       0x10 icomlib.a(ssl_api.o)
                0x02017ea8                sslhandlerprocess
 .data.g_config
                0x02017eb8       0x20 icomlib.a(matrixssl.o)
 .data.g_config
                0x02017ed8       0x20 icomlib.a(corelib.o)
 .data.g_config
                0x02017ef8       0x20 icomlib.a(pubkey.o)
 .data.supportedCiphers
                0x02017f18       0xa0 icomlib.a(cipherSuite.o)
 .data.periodic_timer_process
                0x02017fb8       0x10 ./thirdPartyLib/libdtlib.a(udp_listen.o)
                0x02017fb8                periodic_timer_process
 .data.udp_server_process
                0x02017fc8       0x10 ./thirdPartyLib/libdtlib.a(udp_listen.o)
                0x02017fc8                udp_server_process
 .data.packet.6829
                0x02017fd8        0x2 ./thirdPartyLib/libdtlib.a(dt_mqtt.o)
 *fill*         0x02017fda        0x2 
 .data.dt_mqtt_client_process
                0x02017fdc       0x10 ./thirdPartyLib/libdtlib.a(dt_mqtt.o)
                0x02017fdc                dt_mqtt_client_process
 .data.firewarm_str
                0x02017fec        0x4 ./thirdPartyLib/libdtlib.a(dt_tcp_serve.o)
                0x02017fec                firewarm_str
 .data.tcp_connect_process
                0x02017ff0       0x10 ./thirdPartyLib/libdtlib.a(dt_tcp_serve.o)
                0x02017ff0                tcp_connect_process
 .data.__ctype_ptr__
                0x02018000        0x4 /usr/bin/../lib/gcc/arm-none-eabi/4.8.4/../../../../arm-none-eabi/lib/libg_s.a(lib_a-ctype_.o)
                0x02018000                __ctype_ptr__
 .data.impure_data
                0x02018004       0x60 /usr/bin/../lib/gcc/arm-none-eabi/4.8.4/../../../../arm-none-eabi/lib/libg_s.a(lib_a-impure.o)
 .data._impure_ptr
                0x02018064        0x4 /usr/bin/../lib/gcc/arm-none-eabi/4.8.4/../../../../arm-none-eabi/lib/libg_s.a(lib_a-impure.o)
                0x02018064                _impure_ptr
                0x02018068                _dend_dst = .
                0x03061148                _dbeg_src = LOADADDR (.data)

.igot.plt       0x02018068        0x0 load address 0x03062770
 .igot.plt      0x00000000        0x0 /tmp/ccMTaEw1.o

.bss            0x02018070     0xd1e0 load address 0x03062778
                0x02018070                . = ALIGN (0x10)
                0x02018070                __bss_beg__ = .
 *(EXCLUDE_FILE(icomlib.a:boot-hiflying.o) .bss)
 .bss           0x02018070        0x0 /tmp/ccMTaEw1.o
 .bss           0x02018070        0x0 /tmp/ccSraQUE.o
 .bss           0x02018070        0x0 ssv6060-main.o
 .bss           0x02018070        0x0 icomlib.a(printf.o)
 .bss           0x02018070        0x0 icomlib.a(contiki-main.o)
 .bss           0x02018070        0x0 icomlib.a(drv_uart.o)
 .bss           0x02018070        0x0 icomlib.a(hw_init.o)
 .bss           0x02018070        0x0 icomlib.a(hw_regs_api.o)
 .bss           0x02018070        0x0 icomlib.a(ssv_lib.o)
 .bss           0x02018070        0x0 icomlib.a(systemconf.o)
 .bss           0x02018070        0x0 icomlib.a(wdog_api.o)
 .bss           0x02018070        0x0 icomlib.a(smartSetting.o)
 .bss           0x02018070        0x0 icomlib.a(smartConf.o)
 .bss           0x02018070        0x0 icomlib.a(bsp.o)
 .bss           0x02018070        0x0 icomlib.a(crypthw.o)
 .bss           0x02018070        0x0 icomlib.a(dbg-atcmd-api.o)
 .bss           0x02018070        0x0 icomlib.a(drv_mac.o)
 .bss           0x02018070        0x0 icomlib.a(drv_phy.o)
 .bss           0x02018070        0x0 icomlib.a(drv_pktbuf.o)
 .bss           0x02018070        0x0 icomlib.a(drv_pktbuf_slow)
 .bss           0x02018070        0x0 icomlib.a(ieee80211_mgmt.)
 .bss           0x02018070        0x0 icomlib.a(ieee80211_rdc.o)
 .bss           0x02018070        0x0 icomlib.a(irq.o)
 .bss           0x02018070        0x0 icomlib.a(netstack.o)
 .bss           0x02018070        0x0 icomlib.a(powersave.o)
 .bss           0x02018070        0x0 icomlib.a(rate_control.o)
 .bss           0x02018070        0x0 icomlib.a(soft_ap.o)
 .bss           0x02018070        0x0 icomlib.a(ssv6200_rx.o)
 .bss           0x02018070        0x0 icomlib.a(ssvradio.o)
 .bss           0x02018070        0x0 icomlib.a(wpa.o)
 .bss           0x02018070        0x0 icomlib.a(sys_status_api.)
 .bss           0x02018070        0x0 icomlib.a(aes.o)
 .bss           0x02018070        0x0 icomlib.a(arc4.o)
 .bss           0x02018070        0x0 icomlib.a(wep.o)
 .bss           0x02018070        0x0 icomlib.a(autostart.o)
 .bss           0x02018070        0x0 icomlib.a(etimer.o)
 .bss           0x02018070        0x0 icomlib.a(process.o)
 .bss           0x02018070        0x0 icomlib.a(random.o)
 .bss           0x02018070        0x0 icomlib.a(timer.o)
 .bss           0x02018070        0x0 icomlib.a(atcmdlib.o)
 .bss           0x02018070        0x0 icomlib.a(atcmd_icomm.o)
 .bss           0x02018070        0x0 icomlib.a(clock.o)
 .bss           0x02018070        0x0 icomlib.a(console.o)
 .bss           0x02018070        0x0 icomlib.a(drv_flash.o)
 .bss           0x02018070        0x0 icomlib.a(drv_pmu.o)
 .bss           0x02018070        0x0 icomlib.a(drv_timer.o)
 .bss           0x02018070        0x0 icomlib.a(drv_wdog.o)
 .bss           0x02018070        0x0 icomlib.a(fence.o)
 .bss           0x02018070        0x0 icomlib.a(flash_api.o)
 .bss           0x02018070        0x0 icomlib.a(smartComm.o)
 .bss           0x02018070        0x0 icomlib.a(ssv_lib_slow.o)
 .bss           0x02018070        0x0 icomlib.a(swpwm.o)
 .bss           0x02018070        0x0 icomlib.a(userSmart.o)
 .bss           0x02018070        0x0 icomlib.a(hash_alg.o)
 .bss           0x02018070        0x0 icomlib.a(hmac_md5.o)
 .bss           0x02018070        0x0 icomlib.a(hmac_sha1.o)
 .bss           0x02018070        0x0 icomlib.a(ieee80211_mac.o)
 .bss           0x02018070        0x0 icomlib.a(ieee80211_net.o)
 .bss           0x02018070        0x0 icomlib.a(sha1.o)
 .bss           0x02018070        0x0 icomlib.a(ssv6200_tx.o)
 .bss           0x02018070        0x0 icomlib.a(md5.o)
 .bss           0x02018070        0x0 icomlib.a(shell-ping.o)
 .bss           0x02018070        0x0 icomlib.a(drv_fence.o)
 .bss           0x02018070        0x0 icomlib.a(drv_gpio.o)
 .bss           0x02018070        0x0 icomlib.a(gpio_api.o)
 .bss           0x02018070        0x0 icomlib.a(drv_mbox.o)
 .bss           0x02018070        0x0 icomlib.a(EAPOL.o)
 .bss           0x02018070        0x0 icomapps.a(atcmd_mqtt.o)
 .bss           0x02018070        0x0 icomapps.a(atcmd.o)
 .bss           0x02018070        0x0 icomapps.a(bsp_info.o)
 .bss           0x02018070        0x0 icomapps.a(data_buff.o)
 .bss           0x02018070        0x0 icomapps.a(hx_sta_conn.o)
 .bss           0x02018070        0x0 icomapps.a(iperf_cmd.o)
 .bss           0x02018070        0x0 icomapps.a(key.o)
 .bss           0x02018070        0x0 icomapps.a(MyATCmd.o)
 .bss           0x02018070        0x0 icomapps.a(MyThread.o)
 .bss           0x02018070        0x0 icomapps.a(ota_api.o)
 .bss           0x02018070        0x0 icomapps.a(socket_app.o)
 .bss           0x02018070        0x0 icomapps.a(soft_ap_init.o)
 .bss           0x02018070        0x0 icomapps.a(UAMisc.o)
 .bss           0x02018070        0x0 icomapps.a(UAVersion.o)
 .bss           0x02018070        0x0 icomapps.a(wifi_uart_demo.)
 .bss           0x02018070        0x0 icomapps.a(xmem.o)
 .bss           0x02018070        0x0 icomapps.a(szcloud_intf.o)
 .bss           0x02018070        0x0 icomapps.a(szcloud_uart.o)
 .bss           0x02018070        0x0 icomapps.a(hx_flash_opt.o)
 .bss           0x02018070        0x0 icomapps.a(MyCustSave.o)
 .bss           0x02018070        0x0 icomapps.a(net.o)
 .bss           0x02018070        0x0 icomapps.a(uart.o)
 .bss           0x02018070        0x0 contikilib.a(mqtt.o)
 .bss           0x02018070        0x0 contikilib.a(ntp_client.o)
 .bss           0x02018070        0x0 contikilib.a(cfs-coffee.o)
 .bss           0x02018070        0x0 contikilib.a(dhcp_process.o)
 .bss           0x02018070        0x0 contikilib.a(dhcps.o)
 .bss           0x02018070        0x0 contikilib.a(list.o)
 .bss           0x02018070        0x0 contikilib.a(resolv.o)
 .bss           0x02018070        0x0 contikilib.a(simple-udp.o)
 .bss           0x02018070        0x0 contikilib.a(socket_driver.o)
 .bss           0x02018070        0x0 contikilib.a(tcp-socket.o)
 .bss           0x02018070        0x0 contikilib.a(tcpip.o)
 .bss           0x02018070        0x0 contikilib.a(uip_arp.o)
 .bss           0x02018070        0x0 contikilib.a(uip.o)
 .bss           0x02018070        0x0 contikilib.a(uiplib.o)
 .bss           0x02018070        0x0 contikilib.a(uip-udp-packet.)
 .bss           0x02018070        0x0 contikilib.a(dhcpc.o)
 .bss           0x02018070        0x0 icomlib.a(ctimer.o)
 .bss           0x02018070        0x0 icomlib.a(pwm_api.o)
 .bss           0x02018070        0x0 icomlib.a(serial_api.o)
 .bss           0x02018070        0x0 icomlib.a(ssl_api.o)
 .bss           0x02018070        0x0 icomlib.a(osdep.o)
 .bss           0x02018070        0x0 icomlib.a(tls.o)
 .bss           0x02018070        0x0 icomlib.a(matrixssl.o)
 .bss           0x02018070        0x0 icomlib.a(matrixsslApi.o)
 .bss           0x02018070        0x0 icomlib.a(sslDecode.o)
 .bss           0x02018070        0x0 icomlib.a(sslEncode.o)
 .bss           0x02018070        0x0 icomlib.a(drv_pwm.o)
 .bss           0x02018070        0x0 icomlib.a(corelib.o)
 .bss           0x02018070        0x0 icomlib.a(prng.o)
 .bss           0x02018070        0x0 icomlib.a(sha1ssl.o)
 .bss           0x02018070        0x0 icomlib.a(sha256.o)
 .bss           0x02018070        0x0 icomlib.a(hmac.o)
 .bss           0x02018070        0x0 icomlib.a(pstm.o)
 .bss           0x02018070        0x0 icomlib.a(pstmmonreduce.o)
 .bss           0x02018070        0x0 icomlib.a(pstmsqrcomba.o)
 .bss           0x02018070        0x0 icomlib.a(pstmmulcomba.o)
 .bss           0x02018070        0x0 icomlib.a(pubkey.o)
 .bss           0x02018070        0x0 icomlib.a(rsa.o)
 .bss           0x02018070        0x0 icomlib.a(pkcs.o)
 .bss           0x02018070        0x0 icomlib.a(asn1.o)
 .bss           0x02018070        0x0 icomlib.a(base64.o)
 .bss           0x02018070        0x0 icomlib.a(x509.o)
 .bss           0x02018070        0x0 icomlib.a(prf.o)
 .bss           0x02018070        0x0 icomlib.a(cipherSuite.o)
 .bss           0x02018070        0x0 icomlib.a(hsHash.o)
 .bss           0x02018070        0x0 icomlib.a(time.o)
 .bss           0x02018070        0x0 ./thirdPartyLib/libdtlib.a(common_general_)
 .bss           0x02018070        0x0 ./thirdPartyLib/libdtlib.a(udp_listen.o)
 .bss           0x02018070        0x0 ./thirdPartyLib/libdtlib.a(dt_mqtt.o)
 .bss           0x02018070        0x0 ./thirdPartyLib/libdtlib.a(dt_tcp_serve.o)
 .bss           0x02018070        0x0 /usr/bin/../lib/gcc/arm-none-eabi/4.8.4/libgcc.a(_udivsi3.o)
 .bss           0x02018070        0x0 /usr/bin/../lib/gcc/arm-none-eabi/4.8.4/libgcc.a(_divsi3.o)
 .bss           0x02018070        0x0 /usr/bin/../lib/gcc/arm-none-eabi/4.8.4/libgcc.a(_dvmd_tls.o)
 .bss           0x02018070        0x0 /usr/bin/../lib/gcc/arm-none-eabi/4.8.4/libgcc.a(_aeabi_ldivmod.o)
 .bss           0x02018070        0x0 /usr/bin/../lib/gcc/arm-none-eabi/4.8.4/libgcc.a(_aeabi_uldivmod.o)
 .bss           0x02018070        0x0 /usr/bin/../lib/gcc/arm-none-eabi/4.8.4/libgcc.a(bpabi.o)
 .bss           0x02018070        0x0 /usr/bin/../lib/gcc/arm-none-eabi/4.8.4/libgcc.a(_divdi3.o)
 .bss           0x02018070        0x0 /usr/bin/../lib/gcc/arm-none-eabi/4.8.4/libgcc.a(_udivdi3.o)
 .bss           0x02018070        0x0 /usr/bin/../lib/gcc/arm-none-eabi/4.8.4/libgcc.a(_clzsi2.o)
 .bss           0x02018070        0x0 /usr/bin/../lib/gcc/arm-none-eabi/4.8.4/../../../../arm-none-eabi/lib/libg_s.a(lib_a-atoi.o)
 .bss           0x02018070        0x0 /usr/bin/../lib/gcc/arm-none-eabi/4.8.4/../../../../arm-none-eabi/lib/libg_s.a(lib_a-ctype_.o)
 .bss           0x02018070        0x0 /usr/bin/../lib/gcc/arm-none-eabi/4.8.4/../../../../arm-none-eabi/lib/libg_s.a(lib_a-errno.o)
 .bss           0x02018070        0x0 /usr/bin/../lib/gcc/arm-none-eabi/4.8.4/../../../../arm-none-eabi/lib/libg_s.a(lib_a-impure.o)
 .bss           0x02018070        0x0 /usr/bin/../lib/gcc/arm-none-eabi/4.8.4/../../../../arm-none-eabi/lib/libg_s.a(lib_a-malloc.o)
 .bss           0x02018070        0x0 /usr/bin/../lib/gcc/arm-none-eabi/4.8.4/../../../../arm-none-eabi/lib/libg_s.a(lib_a-memmove.o)
 .bss           0x02018070        0x0 /usr/bin/../lib/gcc/arm-none-eabi/4.8.4/../../../../arm-none-eabi/lib/libg_s.a(lib_a-mstats.o)
 .bss           0x02018070        0x0 /usr/bin/../lib/gcc/arm-none-eabi/4.8.4/../../../../arm-none-eabi/lib/libg_s.a(lib_a-nano-freer.o)
 .bss           0x02018070        0x0 /usr/bin/../lib/gcc/arm-none-eabi/4.8.4/../../../../arm-none-eabi/lib/libg_s.a(lib_a-nano-mallinfor.o)
 .bss           0x02018070        0x0 /usr/bin/../lib/gcc/arm-none-eabi/4.8.4/../../../../arm-none-eabi/lib/libg_s.a(lib_a-nano-mallocr.o)
 .bss           0x02018070        0x0 /usr/bin/../lib/gcc/arm-none-eabi/4.8.4/../../../../arm-none-eabi/lib/libg_s.a(lib_a-nano-malloptr.o)
 .bss           0x02018070        0x0 /usr/bin/../lib/gcc/arm-none-eabi/4.8.4/../../../../arm-none-eabi/lib/libg_s.a(lib_a-nano-mallstatsr.o)
 .bss           0x02018070        0x0 /usr/bin/../lib/gcc/arm-none-eabi/4.8.4/../../../../arm-none-eabi/lib/libg_s.a(lib_a-rand.o)
 .bss           0x02018070        0x0 /usr/bin/../lib/gcc/arm-none-eabi/4.8.4/../../../../arm-none-eabi/lib/libg_s.a(lib_a-realloc.o)
 .bss           0x02018070        0x0 /usr/bin/../lib/gcc/arm-none-eabi/4.8.4/../../../../arm-none-eabi/lib/libg_s.a(lib_a-sbrkr.o)
 .bss           0x02018070        0x0 /usr/bin/../lib/gcc/arm-none-eabi/4.8.4/../../../../arm-none-eabi/lib/libg_s.a(lib_a-strcasecmp.o)
 .bss           0x02018070        0x0 /usr/bin/../lib/gcc/arm-none-eabi/4.8.4/../../../../arm-none-eabi/lib/libg_s.a(lib_a-strchr.o)
 .bss           0x02018070        0x0 /usr/bin/../lib/gcc/arm-none-eabi/4.8.4/../../../../arm-none-eabi/lib/libg_s.a(lib_a-strcpy.o)
 .bss           0x02018070        0x0 /usr/bin/../lib/gcc/arm-none-eabi/4.8.4/../../../../arm-none-eabi/lib/libg_s.a(lib_a-strncmp.o)
 .bss           0x02018070        0x0 /usr/bin/../lib/gcc/arm-none-eabi/4.8.4/../../../../arm-none-eabi/lib/libg_s.a(lib_a-strrchr.o)
 .bss           0x02018070        0x0 /usr/bin/../lib/gcc/arm-none-eabi/4.8.4/../../../../arm-none-eabi/lib/libg_s.a(lib_a-strstr.o)
 .bss           0x02018070        0x0 /usr/bin/../lib/gcc/arm-none-eabi/4.8.4/../../../../arm-none-eabi/lib/libg_s.a(lib_a-strtol.o)
 .bss           0x02018070        0x0 /usr/bin/../lib/gcc/arm-none-eabi/4.8.4/../../../../arm-none-eabi/lib/libg_s.a(lib_a-strtoul.o)
 .bss           0x02018070        0x0 /usr/bin/../lib/gcc/arm-none-eabi/4.8.4/../../../../arm-none-eabi/lib/libg_s.a(lib_a-findfp.o)
 .bss           0x02018070        0x0 /usr/bin/../lib/gcc/arm-none-eabi/4.8.4/../../../../arm-none-eabi/lib/libg_s.a(lib_a-fprintf.o)
 .bss           0x02018070        0x0 /usr/bin/../lib/gcc/arm-none-eabi/4.8.4/../../../../arm-none-eabi/lib/libg_s.a(lib_a-fwalk.o)
 .bss           0x02018070        0x0 /usr/bin/../lib/gcc/arm-none-eabi/4.8.4/../../../../arm-none-eabi/lib/libg_s.a(lib_a-nano-reallocr.o)
 .bss           0x02018070        0x0 /usr/bin/../lib/gcc/arm-none-eabi/4.8.4/../../../../arm-none-eabi/lib/libg_s.a(lib_a-reent.o)
 .bss           0x02018070        0x0 /usr/bin/../lib/gcc/arm-none-eabi/4.8.4/../../../../arm-none-eabi/lib/libg_s.a(lib_a-stdio.o)
 .bss           0x02018070        0x0 /usr/bin/../lib/gcc/arm-none-eabi/4.8.4/../../../../arm-none-eabi/lib/libg_s.a(lib_a-vfprintf.o)
 .bss           0x02018070        0x0 /usr/bin/../lib/gcc/arm-none-eabi/4.8.4/../../../../arm-none-eabi/lib/libg_s.a(lib_a-vfprintf_i.o)
 .bss           0x02018070        0x0 /usr/bin/../lib/gcc/arm-none-eabi/4.8.4/../../../../arm-none-eabi/lib/libg_s.a(lib_a-wbuf.o)
 .bss           0x02018070        0x0 /usr/bin/../lib/gcc/arm-none-eabi/4.8.4/../../../../arm-none-eabi/lib/libg_s.a(lib_a-writer.o)
 .bss           0x02018070        0x0 /usr/bin/../lib/gcc/arm-none-eabi/4.8.4/../../../../arm-none-eabi/lib/libg_s.a(lib_a-wsetup.o)
 .bss           0x02018070        0x0 /usr/bin/../lib/gcc/arm-none-eabi/4.8.4/../../../../arm-none-eabi/lib/libg_s.a(lib_a-closer.o)
 .bss           0x02018070        0x0 /usr/bin/../lib/gcc/arm-none-eabi/4.8.4/../../../../arm-none-eabi/lib/libg_s.a(lib_a-fflush.o)
 .bss           0x02018070        0x0 /usr/bin/../lib/gcc/arm-none-eabi/4.8.4/../../../../arm-none-eabi/lib/libg_s.a(lib_a-fvwrite.o)
 .bss           0x02018070        0x0 /usr/bin/../lib/gcc/arm-none-eabi/4.8.4/../../../../arm-none-eabi/lib/libg_s.a(lib_a-lseekr.o)
 .bss           0x02018070        0x0 /usr/bin/../lib/gcc/arm-none-eabi/4.8.4/../../../../arm-none-eabi/lib/libg_s.a(lib_a-makebuf.o)
 .bss           0x02018070        0x0 /usr/bin/../lib/gcc/arm-none-eabi/4.8.4/../../../../arm-none-eabi/lib/libg_s.a(lib_a-memchr-stub.o)
 .bss           0x02018070        0x0 /usr/bin/../lib/gcc/arm-none-eabi/4.8.4/../../../../arm-none-eabi/lib/libg_s.a(lib_a-nano-msizer.o)
 .bss           0x02018070        0x0 /usr/bin/../lib/gcc/arm-none-eabi/4.8.4/../../../../arm-none-eabi/lib/libg_s.a(lib_a-readr.o)
 .bss           0x02018070        0x0 /usr/bin/../lib/gcc/arm-none-eabi/4.8.4/../../../../arm-none-eabi/lib/libg_s.a(lib_a-fstatr.o)
 .bss           0x02018070        0x0 /usr/bin/../lib/gcc/arm-none-eabi/4.8.4/../../../../arm-none-eabi/lib/libg_s.a(lib_a-isattyr.o)
 .bss           0x02018070        0x0 /usr/bin/../lib/gcc/arm-none-eabi/4.8.4/../../../../arm-none-eabi/lib/libnosys.a(close.o)
 .bss           0x02018070        0x0 /usr/bin/../lib/gcc/arm-none-eabi/4.8.4/../../../../arm-none-eabi/lib/libnosys.a(fstat.o)
 .bss           0x02018070        0x0 /usr/bin/../lib/gcc/arm-none-eabi/4.8.4/../../../../arm-none-eabi/lib/libnosys.a(isatty.o)
 .bss           0x02018070        0x0 /usr/bin/../lib/gcc/arm-none-eabi/4.8.4/../../../../arm-none-eabi/lib/libnosys.a(lseek.o)
 .bss           0x02018070        0x0 /usr/bin/../lib/gcc/arm-none-eabi/4.8.4/../../../../arm-none-eabi/lib/libnosys.a(read.o)
 .bss           0x02018070        0x0 /usr/bin/../lib/gcc/arm-none-eabi/4.8.4/../../../../arm-none-eabi/lib/libnosys.a(write.o)
 *(EXCLUDE_FILE(icomlib.a:boot-hiflying.o) .bss*)
 .bss.g_aLogLevel
                0x02018070       0x20 icomlib.a(printf.o)
                0x02018070                g_aLogLevel
 .bss.gDisableRTS
                0x02018090        0x1 icomlib.a(contiki-main.o)
                0x02018090                gDisableRTS
 *fill*         0x02018091        0x3 
 .bss.idle_count
                0x02018094        0x4 icomlib.a(contiki-main.o)
                0x02018094                idle_count
 .bss.g_modulator_pll_reset
                0x02018098        0x4 icomlib.a(hw_init.o)
                0x02018098                g_modulator_pll_reset
 .bss.last.5070
                0x0201809c        0x4 icomlib.a(ssv_lib.o)
 .bss.wdog_timer.4938
                0x020180a0       0x18 icomlib.a(wdog_api.o)
 .bss.wdogen.4939
                0x020180b8        0x1 icomlib.a(wdog_api.o)
 *fill*         0x020180b9        0x3 
 .bss.choice_feature
                0x020180bc        0x4 icomlib.a(smartSetting.o)
                0x020180bc                choice_feature
 .bss.timer     0x020180c0       0x18 icomlib.a(smartConf.o)
 .bss.recePhone
                0x020180d8      0x384 icomlib.a(smartConf.o)
 *fill*         0x0201845c        0x4 
 .bss.tx_timer.8419
                0x02018460       0x18 icomlib.a(dbg-atcmd-api.o)
 .bss.temp_timer.8433
                0x02018478       0x18 icomlib.a(dbg-atcmd-api.o)
 .bss.nowCount.8420
                0x02018490        0x4 icomlib.a(dbg-atcmd-api.o)
 .bss.stTemperature
                0x02018494        0x4 icomlib.a(dbg-atcmd-api.o)
                0x02018494                stTemperature
 .bss.eventcallback
                0x02018498        0x4 icomlib.a(dbg-atcmd-api.o)
                0x02018498                eventcallback
 .bss.channel_log
                0x0201849c      0x1f4 icomlib.a(dbg-atcmd-api.o)
                0x0201849c                channel_log
 .bss.flash_buf
                0x02018690        0x4 icomlib.a(dbg-atcmd-api.o)
                0x02018690                flash_buf
 .bss.nRFResult
                0x02018694       0x50 icomlib.a(dbg-atcmd-api.o)
                0x02018694                nRFResult
 .bss.rtbl_temperature
                0x020186e4        0x4 icomlib.a(drv_phy.o)
                0x020186e4                rtbl_temperature
 .bss.pbuf_id_num
                0x020186e8        0x2 icomlib.a(drv_pktbuf.o)
 .bss.pbuf_id_out_ptr
                0x020186ea        0x2 icomlib.a(drv_pktbuf.o)
 .bss.pbuf_id_queue
                0x020186ec      0x100 icomlib.a(drv_pktbuf.o)
 .bss.pbuf_id_in_ptr
                0x020187ec        0x2 icomlib.a(drv_pktbuf.o)
 .bss.addr.8557
                0x020187ee        0x4 icomlib.a(ieee80211_mgmt.)
 .bss.level.8530
                0x020187f2        0x1 icomlib.a(ieee80211_mgmt.)
 .bss.cur_channel.8503
                0x020187f3        0x1 icomlib.a(ieee80211_mgmt.)
 .bss.formP.8525
                0x020187f4        0x4 icomlib.a(ieee80211_mgmt.)
 .bss.timer.8547
                0x020187f8       0x18 icomlib.a(ieee80211_mgmt.)
 .bss.available_index
                0x02018810        0x1 icomlib.a(ieee80211_mgmt.)
 .bss.loop.8505
                0x02018811        0x1 icomlib.a(ieee80211_mgmt.)
 .bss.max_channel.8528
                0x02018812        0x1 icomlib.a(ieee80211_mgmt.)
 .bss.cur_channel.8527
                0x02018813        0x1 icomlib.a(ieee80211_mgmt.)
 .bss.txcnt.8504
                0x02018814        0x1 icomlib.a(ieee80211_mgmt.)
 *fill*         0x02018815        0x3 
 .bss.addrptr.8558
                0x02018818        0x4 icomlib.a(ieee80211_mgmt.)
 .bss.scantime_in_ms.8529
                0x0201881c        0x2 icomlib.a(ieee80211_mgmt.)
 *fill*         0x0201881e        0x2 
 .bss.channel   0x02018820        0x4 icomlib.a(ieee80211_mgmt.)
 .bss.checkAPCnt
                0x02018824        0x1 icomlib.a(ieee80211_mgmt.)
                0x02018824                checkAPCnt
 *fill*         0x02018825        0x3 
 .bss.seqctrl   0x02018828        0x4 icomlib.a(ieee80211_mgmt.)
 .bss.req_count
                0x0201882c        0x1 icomlib.a(ieee80211_mgmt.)
 *fill*         0x0201882d        0x3 
 .bss.p_scan_custom_args.8526
                0x02018830        0x4 icomlib.a(ieee80211_mgmt.)
 *fill*         0x02018834        0x4 
 .bss.probtimer.8502
                0x02018838       0x18 icomlib.a(ieee80211_mgmt.)
 .bss.level.8506
                0x02018850        0x1 icomlib.a(ieee80211_mgmt.)
 *fill*         0x02018851        0x7 
 .bss.timer.8524
                0x02018858       0x18 icomlib.a(ieee80211_mgmt.)
 .bss.timer.8491
                0x02018870       0x18 icomlib.a(ieee80211_mgmt.)
 .bss.gOsFromISR
                0x02018888        0x1 icomlib.a(irq.o)
                0x02018888                gOsFromISR
 .bss.main_irq_tbl
                0x02018889      0x180 icomlib.a(irq.o)
 .bss.losscnt   0x02018a09        0x1 icomlib.a(powersave.o)
                0x02018a09                losscnt
 *fill*         0x02018a0a        0x2 
 .bss.g_idle_counter
                0x02018a0c        0x4 icomlib.a(soft_ap.o)
                0x02018a0c                g_idle_counter
 .bss.rlt.9503  0x02018a10        0x4 icomlib.a(soft_ap.o)
 .bss.index_sta.9492
                0x02018a14        0x1 icomlib.a(soft_ap.o)
 *fill*         0x02018a15        0x3 
 .bss.null_data_timer.9489
                0x02018a18       0x18 icomlib.a(soft_ap.o)
 .bss.g_softap_state_tmp
                0x02018a30        0x1 icomlib.a(soft_ap.o)
                0x02018a30                g_softap_state_tmp
 *fill*         0x02018a31        0x1 
 .bss.beacon_loop_cnt.9504
                0x02018a32        0x2 icomlib.a(soft_ap.o)
 .bss.g_beacon_len
                0x02018a34        0x2 icomlib.a(soft_ap.o)
                0x02018a34                g_beacon_len
 *fill*         0x02018a36        0x2 
 .bss.p_sta_info.9493
                0x02018a38        0x4 icomlib.a(soft_ap.o)
 *fill*         0x02018a3c        0x4 
 .bss.mgm_timer.9477
                0x02018a40       0x18 icomlib.a(soft_ap.o)
 .bss.filterdebug
                0x02018a58        0x4 icomlib.a(ssv6200_rx.o)
                0x02018a58                filterdebug
 .bss.spwsavecnt.7074
                0x02018a5c        0x1 icomlib.a(ssv6200_rx.o)
 .bss.filter_ethaddr
                0x02018a5d        0x6 icomlib.a(ssv6200_rx.o)
                0x02018a5d                filter_ethaddr
 *fill*         0x02018a63        0x1 
 .bss.filtercount
                0x02018a64        0x4 icomlib.a(ssv6200_rx.o)
                0x02018a64                filtercount
 .bss.fc_subtype_type_ver.6731
                0x02018a68        0x2 icomlib.a(ssvradio.o)
 *fill*         0x02018a6a        0x2 
 .bss.g_tx_config
                0x02018a6c        0xc icomlib.a(ssvradio.o)
                0x02018a6c                g_tx_config
 .bss.sys_slink_mode
                0x02018a78        0x1 icomlib.a(sys_status_api.)
                0x02018a78                sys_slink_mode
 *fill*         0x02018a79        0x3 
 .bss.timerlist
                0x02018a7c        0x4 icomlib.a(etimer.o)
 .bss.next_expiration
                0x02018a80        0x8 icomlib.a(etimer.o)
 .bss.ev.5207   0x02018a88        0x1 icomlib.a(process.o)
 .bss.fevent    0x02018a89        0x1 icomlib.a(process.o)
 .bss.snum.5225
                0x02018a8a        0x1 icomlib.a(process.o)
 .bss.nevents   0x02018a8b        0x1 icomlib.a(process.o)
 .bss.receiver.5209
                0x02018a8c        0x4 icomlib.a(process.o)
 .bss.poll_requested
                0x02018a90        0x1 icomlib.a(process.o)
 *fill*         0x02018a91        0x3 
 .bss.process_current
                0x02018a94        0x4 icomlib.a(process.o)
                0x02018a94                process_current
 .bss.data.5208
                0x02018a98        0x4 icomlib.a(process.o)
 .bss.process_list
                0x02018a9c        0x4 icomlib.a(process.o)
                0x02018a9c                process_list
 .bss.p.5210    0x02018aa0        0x4 icomlib.a(process.o)
 .bss.events    0x02018aa4      0x180 icomlib.a(process.o)
 .bss.lastevent
                0x02018c24        0x1 icomlib.a(process.o)
 *fill*         0x02018c25        0x3 
 .bss.current_clock
                0x02018c28        0x8 icomlib.a(clock.o)
 .bss.current_seconds
                0x02018c30        0x4 icomlib.a(clock.o)
 .bss.seconds_tick
                0x02018c34        0x4 icomlib.a(clock.o)
 *fill*         0x02018c38        0x8 
 .bss.au8spi_data
                0x02018c40      0x110 icomlib.a(drv_flash.o)
 .bss.u32flash_base_addr
                0x02018d50        0x4 icomlib.a(drv_flash.o)
 *fill*         0x02018d54        0xc 
 .bss.flash_cache_buffer
                0x02018d60     0x1000 icomlib.a(drv_flash.o)
 .bss.au8spi_cmd
                0x02019d60      0x110 icomlib.a(drv_flash.o)
 .bss.unicast_connection.8517
                0x02019e70       0x18 icomlib.a(smartComm.o)
 .bss.smart     0x02019e88       0x54 icomlib.a(smartComm.o)
 .bss.pwmlist   0x02019edc       0x24 icomlib.a(swpwm.o)
 .bss.currtick  0x02019f00        0x8 icomlib.a(swpwm.o)
 .bss.user      0x02019f08        0xc icomlib.a(userSmart.o)
 .bss.seqno     0x02019f14        0x4 icomlib.a(ieee80211_mac.o)
 .bss.nPingCount
                0x02019f18        0x4 icomlib.a(ieee80211_mac.o)
                0x02019f18                nPingCount
 *fill*         0x02019f1c        0x4 
 .bss.timer.6428
                0x02019f20       0x18 icomlib.a(shell-ping.o)
 .bss.remoteaddr
                0x02019f38        0x4 icomlib.a(shell-ping.o)
 .bss.ipid.6421
                0x02019f3c        0x2 icomlib.a(shell-ping.o)
 .bss.ping_loop_i
                0x02019f3e        0x2 icomlib.a(shell-ping.o)
 .bss.seqno.6422
                0x02019f40        0x2 icomlib.a(shell-ping.o)
 .bss.mqtt_pub_topic
                0x02019f42       0x40 icomapps.a(atcmd_mqtt.o)
 .bss.ip_addr.8801
                0x02019f82       0x10 icomapps.a(atcmd_mqtt.o)
 *fill*         0x02019f92        0x6 
 .bss.mqtt_conf
                0x02019f98      0x130 icomapps.a(atcmd_mqtt.o)
 .bss.app_buffer
                0x0201a0c8      0x200 icomapps.a(atcmd_mqtt.o)
 .bss.mqtt_sub_topic
                0x0201a2c8       0x40 icomapps.a(atcmd_mqtt.o)
 .bss.mqtt_conn
                0x0201a308      0xb50 icomapps.a(atcmd_mqtt.o)
 .bss.mqtt_client_id
                0x0201ae58       0x40 icomapps.a(atcmd_mqtt.o)
 .bss.successcnt
                0x0201ae98        0x4 icomapps.a(atcmd.o)
                0x0201ae98                successcnt
 .bss.testcnt   0x0201ae9c        0x4 icomapps.a(atcmd.o)
                0x0201ae9c                testcnt
 .bss.hostname  0x0201aea0       0x80 icomapps.a(atcmd.o)
 .bss.buffer_in_dynamic
                0x0201af20        0x4 icomapps.a(atcmd.o)
 *fill*         0x0201af24        0x4 
 .bss.httptimeout.10091
                0x0201af28       0x18 icomapps.a(atcmd.o)
 .bss.buffer_out_dynamic
                0x0201af40        0x4 icomapps.a(atcmd.o)
                0x0201af40                buffer_out_dynamic
 .bss.ghttprun  0x0201af44        0x1 icomapps.a(atcmd.o)
 *fill*         0x0201af45        0x3 
 .bss.httpsock.10092
                0x0201af48        0x4 icomapps.a(atcmd.o)
 .bss.pool_array
                0x0201af4c       0x54 icomapps.a(data_buff.o)
 .bss.mem_pool  0x0201afa0     0x2c00 icomapps.a(data_buff.o)
 .bss.buffer    0x0201dba0      0x168 icomapps.a(data_buff.o)
 .bss.bRunning  0x0201dd08        0x1 icomapps.a(hx_sta_conn.o)
 *fill*         0x0201dd09        0x1 
 .bss.conn_ap_count
                0x0201dd0a        0x2 icomapps.a(hx_sta_conn.o)
 *fill*         0x0201dd0c        0x4 
 .bss.timer.10130
                0x0201dd10       0x18 icomapps.a(hx_sta_conn.o)
 .bss.hx_ssid   0x0201dd28       0x21 icomapps.a(hx_sta_conn.o)
 .bss.hx_key    0x0201dd49       0x21 icomapps.a(hx_sta_conn.o)
 .bss.hx_bssid  0x0201dd6a        0xd icomapps.a(hx_sta_conn.o)
 .bss.key_state.9690
                0x0201dd77        0x1 icomapps.a(key.o)
 .bss.i.9692    0x0201dd78        0x1 icomapps.a(key.o)
 .bss.key_old_state.9691
                0x0201dd79        0x1 icomapps.a(key.o)
 .bss.count.9694
                0x0201dd7a        0x1 icomapps.a(key.o)
 *fill*         0x0201dd7b        0x1 
 .bss.longDownCount.9686
                0x0201dd7c        0x4 icomapps.a(key.o)
 .bss.timer.9689
                0x0201dd80       0x18 icomapps.a(key.o)
 .bss.ret.9693  0x0201dd98        0x1 icomapps.a(key.o)
 .bss.R_btaBuf  0x0201dd99     0x1000 icomapps.a(MyATCmd.o)
 .bss.bProductTest
                0x0201ed99        0x1 icomapps.a(MyATCmd.o)
                0x0201ed99                bProductTest
 *fill*         0x0201ed9a        0x6 
 .bss.sTm.9694  0x0201eda0       0x18 icomapps.a(MyThread.o)
 .bss.gpio_inited.9752
                0x0201edb8        0x1 icomapps.a(MyThread.o)
 .bss.count.9701
                0x0201edb9        0x1 icomapps.a(MyThread.o)
 *fill*         0x0201edba        0x2 
 .bss.R_bDebugModeInReleaseVer
                0x0201edbc        0x4 icomapps.a(MyThread.o)
                0x0201edbc                R_bDebugModeInReleaseVer
 .bss.ledOn.9759
                0x0201edc0        0x1 icomapps.a(MyThread.o)
 *fill*         0x0201edc1        0x7 
 .bss.sTm.9746  0x0201edc8       0x18 icomapps.a(MyThread.o)
 .bss.ledOn.9774
                0x0201ede0        0x1 icomapps.a(MyThread.o)
 *fill*         0x0201ede1        0x3 
 .bss.R_bDebugModeInReleaseVer_LocalSrv
                0x0201ede4        0x4 icomapps.a(MyThread.o)
                0x0201ede4                R_bDebugModeInReleaseVer_LocalSrv
 .bss.first.9782
                0x0201ede8        0x4 icomapps.a(MyThread.o)
 .bss.blink_time.9773
                0x0201edec        0x4 icomapps.a(MyThread.o)
 .bss.i.9700    0x0201edf0        0x1 icomapps.a(MyThread.o)
 *fill*         0x0201edf1        0x3 
 .bss.myTmp_list
                0x0201edf4        0x4 icomapps.a(MyThread.o)
 .bss.R_iIOTest_Times
                0x0201edf8        0x4 icomapps.a(MyThread.o)
 .bss.S_FMTest_Result
                0x0201edfc       0x2c icomapps.a(MyThread.o)
 .bss.sTm.9722  0x0201ee28       0x18 icomapps.a(MyThread.o)
 .bss.eStatusOld.9768
                0x0201ee40        0x1 icomapps.a(MyThread.o)
 *fill*         0x0201ee41        0x3 
 .bss.R_iSmartLinking
                0x0201ee44        0x4 icomapps.a(MyThread.o)
                0x0201ee44                R_iSmartLinking
 .bss.sTm.9767  0x0201ee48       0x18 icomapps.a(MyThread.o)
 .bss.iIOIndex.9723
                0x0201ee60        0x4 icomapps.a(MyThread.o)
 .bss.mode.9769
                0x0201ee64        0x1 icomapps.a(MyThread.o)
 *fill*         0x0201ee65        0x3 
 .bss.flashLedTimeNum.9758
                0x0201ee68        0x4 icomapps.a(MyThread.o)
 .bss.appcallbackproc
                0x0201ee6c        0x4 icomapps.a(ota_api.o)
 .bss.i.8711    0x0201ee70        0x1 icomapps.a(ota_api.o)
 *fill*         0x0201ee71        0x7 
 .bss.periodic_timer.8780
                0x0201ee78       0x18 icomapps.a(ota_api.o)
 .bss.dload_bytes.8675
                0x0201ee90        0x4 icomapps.a(ota_api.o)
 .bss.data      0x0201ee94        0x4 icomapps.a(ota_api.o)
 .bss.ota_timer.8709
                0x0201ee98       0x18 icomapps.a(ota_api.o)
 .bss.count.8710
                0x0201eeb0        0x1 icomapps.a(ota_api.o)
 *fill*         0x0201eeb1        0x3 
 .bss.g_ota_sslctx
                0x0201eeb4        0x4 icomapps.a(ota_api.o)
 .bss.periodic_timer.8766
                0x0201eeb8       0x18 icomapps.a(ota_api.o)
 .bss.c.8650    0x0201eed0        0x1 icomapps.a(ota_api.o)
 *fill*         0x0201eed1        0x7 
 .bss.periodic_timer.7749
                0x0201eed8       0x18 icomapps.a(socket_app.o)
 .bss.periodic_timer.7759
                0x0201eef0       0x18 icomapps.a(socket_app.o)
 .bss.gSocketNetPara
                0x0201ef08      0x12c icomapps.a(socket_app.o)
 *fill*         0x0201f034        0x4 
 .bss.sTcp      0x0201f038       0x18 icomapps.a(wifi_uart_demo.)
 .bss.serial_timer.8573
                0x0201f050       0x18 icomapps.a(wifi_uart_demo.)
 .bss.flag_restart
                0x0201f068        0x1 icomapps.a(wifi_uart_demo.)
 *fill*         0x0201f069        0x3 
 .bss.tcp_send_count
                0x0201f06c        0x4 icomapps.a(wifi_uart_demo.)
 .bss.uart_rx_count
                0x0201f070        0x4 icomapps.a(wifi_uart_demo.)
 *fill*         0x0201f074        0x4 
 .bss.timer.9766
                0x0201f078       0x18 icomapps.a(szcloud_intf.o)
 .bss.ret.9771  0x0201f090        0x4 icomapps.a(szcloud_intf.o)
 .bss.start_dt_service_flag.9767
                0x0201f094        0x1 icomapps.a(szcloud_intf.o)
 .bss.sz_switch_status
                0x0201f095        0x1 icomapps.a(szcloud_uart.o)
 .bss.hx_dirty  0x0201f096        0x1 icomapps.a(hx_flash_opt.o)
 .bss.updated.10050
                0x0201f097        0x1 icomapps.a(hx_flash_opt.o)
 .bss.hx_conf   0x0201f098      0x1c8 icomapps.a(hx_flash_opt.o)
 .bss.net_ip_addr
                0x0201f260        0x4 icomapps.a(net.o)
 .bss.hx_is_nslookup_blocking
                0x0201f264        0x1 icomapps.a(net.o)
 .bss.ip_table  0x0201f265       0x88 icomapps.a(net.o)
 *fill*         0x0201f2ed        0x3 
 .bss.net_tcp_close_reason
                0x0201f2f0        0x4 icomapps.a(net.o)
 .bss.net_hekr_get_ack
                0x0201f2f4        0x1 icomapps.a(net.o)
 *fill*         0x0201f2f5        0x3 
 .bss.net_array
                0x0201f2f8       0x6c icomapps.a(net.o)
 .bss.hx_socket_array
                0x0201f364        0x4 icomapps.a(uart.o)
 .bss.fn_uart   0x0201f368        0x4 icomapps.a(uart.o)
 .bss.bDataUartInited
                0x0201f36c        0x1 icomapps.a(uart.o)
 .bss.hx_gpio1_status
                0x0201f36d        0x1 icomapps.a(uart.o)
 .bss.hx_ap_mode
                0x0201f36e        0x1 icomapps.a(uart.o)
 *fill*         0x0201f36f        0x1 
 .bss.hx_sok_info
                0x0201f370       0x50 icomapps.a(uart.o)
 .bss.mqtt_abort_now_event
                0x0201f3c0        0x1 contikilib.a(mqtt.o)
 *fill*         0x0201f3c1        0x7 
 .bss.timer.9781
                0x0201f3c8       0x18 contikilib.a(mqtt.o)
 .bss.mqtt_do_unsubscribe_event
                0x0201f3e0        0x1 contikilib.a(mqtt.o)
 .bss.inited.9815
                0x0201f3e1        0x1 contikilib.a(mqtt.o)
 .bss.mqtt_do_connect_tcp_event
                0x0201f3e2        0x1 contikilib.a(mqtt.o)
 .bss.back_buff
                0x0201f3e3      0x12c contikilib.a(mqtt.o)
 *fill*         0x0201f50f        0x1 
 .bss.back_len  0x0201f510        0x4 contikilib.a(mqtt.o)
 .bss.mqtt_do_subscribe_event
                0x0201f514        0x1 contikilib.a(mqtt.o)
 .bss.mqtt_do_connect_mqtt_event
                0x0201f515        0x1 contikilib.a(mqtt.o)
 .bss.mqtt_event_min
                0x0201f516        0x1 contikilib.a(mqtt.o)
 .bss.bMQTTEnableSSL
                0x0201f517        0x1 contikilib.a(mqtt.o)
                0x0201f517                bMQTTEnableSSL
 .bss.mqttssl   0x0201f518        0x4 contikilib.a(mqtt.o)
 .bss.mqtt_do_publish_event
                0x0201f51c        0x1 contikilib.a(mqtt.o)
 *fill*         0x0201f51d        0x3 
 .bss.conn.9780
                0x0201f520        0x4 contikilib.a(mqtt.o)
 .bss.mqtt_event_max
                0x0201f524        0x1 contikilib.a(mqtt.o)
 *fill*         0x0201f525        0x3 
 .bss.mqtt_conn_list_list
                0x0201f528        0x4 contikilib.a(mqtt.o)
 .bss.gconn     0x0201f52c        0x4 contikilib.a(mqtt.o)
                0x0201f52c                gconn
 .bss.mqtt_continue_send_event
                0x0201f530        0x1 contikilib.a(mqtt.o)
 .bss.mqtt_do_pingreq_event
                0x0201f531        0x1 contikilib.a(mqtt.o)
 .bss.mqtt_do_disconnect_mqtt_event
                0x0201f532        0x1 contikilib.a(mqtt.o)
 .bss.count.9782
                0x0201f533        0x1 contikilib.a(mqtt.o)
 .bss.bTimeOk   0x0201f534        0x1 contikilib.a(ntp_client.o)
                0x0201f534                bTimeOk
 .bss.i.6650    0x0201f535        0x1 contikilib.a(ntp_client.o)
 *fill*         0x0201f536        0x2 
 .bss.ntp_timer.6649
                0x0201f538       0x18 contikilib.a(ntp_client.o)
 .bss.ntp       0x0201f550       0x3c contikilib.a(ntp_client.o)
 .bss.pPacket   0x0201f58c        0x4 contikilib.a(ntp_client.o)
 .bss.dtime_timer
                0x0201f590       0x30 contikilib.a(ntp_client.o)
 .bss.loop_count
                0x0201f5c0        0x4 contikilib.a(ntp_client.o)
 .bss.packet    0x0201f5c4       0x30 contikilib.a(ntp_client.o)
 .bss.last_pages_are_active.5646
                0x0201f5f4        0x1 contikilib.a(cfs-coffee.o)
 .bss.skip_pages.5645
                0x0201f5f5        0x1 contikilib.a(cfs-coffee.o)
 *fill*         0x0201f5f6        0x2 
 .bss.protected_mem
                0x0201f5f8       0x94 contikilib.a(cfs-coffee.o)
 .bss.send_conn.8106
                0x0201f68c        0x4 contikilib.a(dhcps.o)
 .bss.bcast_addr
                0x0201f690        0x4 contikilib.a(dhcps.o)
 .bss.any_addr  0x0201f694        0x4 contikilib.a(dhcps.o)
 .bss.conn.8105
                0x0201f698        0x4 contikilib.a(dhcps.o)
 .bss.config    0x0201f69c        0x4 contikilib.a(dhcps.o)
 .bss.lease.8107
                0x0201f6a0        0x4 contikilib.a(dhcps.o)
 .bss.resolv_conn
                0x0201f6a4        0x4 contikilib.a(resolv.o)
 .bss.seqno     0x0201f6a8        0x1 contikilib.a(resolv.o)
 .bss.nquestions.5900
                0x0201f6a9        0x1 contikilib.a(resolv.o)
 .bss.lseq.5929
                0x0201f6aa        0x1 contikilib.a(resolv.o)
 *fill*         0x0201f6ab        0x5 
 .bss.retry     0x0201f6b0       0x18 contikilib.a(resolv.o)
 .bss.i.5928    0x0201f6c8        0x1 contikilib.a(resolv.o)
 .bss.i.5940    0x0201f6c9        0x1 contikilib.a(resolv.o)
 .bss.lseqi.5930
                0x0201f6ca        0x1 contikilib.a(resolv.o)
 *fill*         0x0201f6cb        0x1 
 .bss.names     0x0201f6cc      0x440 contikilib.a(resolv.o)
 .bss.aligned.5911
                0x0201fb0c        0xe contikilib.a(resolv.o)
 .bss.nanswers.5901
                0x0201fb1a        0x1 contikilib.a(resolv.o)
 .bss.i.5902    0x0201fb1b        0x1 contikilib.a(resolv.o)
 .bss.started   0x0201fb1c        0x1 contikilib.a(simple-udp.o)
 .bss.databuffer
                0x0201fb1d      0x5ea contikilib.a(simple-udp.o)
 *fill*         0x02020107        0x1 
 .bss.currconn.5399
                0x02020108        0x4 contikilib.a(socket_driver.o)
 .bss.msg.5332  0x0202010c        0x8 contikilib.a(socket_driver.o)
 .bss.recvoffset
                0x02020114        0x2 contikilib.a(socket_driver.o)
                0x02020114                recvoffset
 *fill*         0x02020116        0x2 
 .bss.msg.5400  0x02020118        0x8 contikilib.a(socket_driver.o)
 .bss.currconn.5388
                0x02020120        0x4 contikilib.a(socket_driver.o)
 .bss.inited.7101
                0x02020124        0x1 contikilib.a(tcp-socket.o)
 *fill*         0x02020125        0x3 
 .bss.socketlist_list
                0x02020128        0x4 contikilib.a(tcp-socket.o)
 *fill*         0x0202012c        0x4 
 .bss.arptimer.8042
                0x02020130       0x18 contikilib.a(tcpip.o)
 .bss.i.8083    0x02020148        0x1 contikilib.a(tcpip.o)
 .bss.enable_change_time
                0x02020149        0x1 contikilib.a(tcpip.o)
 *fill*         0x0202014a        0x2 
 .bss.s         0x0202014c       0x7c contikilib.a(tcpip.o)
 .bss.i.8066    0x020201c8        0x1 contikilib.a(tcpip.o)
 .bss.i.8157    0x020201c9        0x1 contikilib.a(tcpip.o)
 .bss.i.8169    0x020201ca        0x1 contikilib.a(tcpip.o)
 *fill*         0x020201cb        0x5 
 .bss.periodic  0x020201d0       0x18 contikilib.a(tcpip.o)
 .bss.i.8121    0x020201e8        0x1 contikilib.a(tcpip.o)
 *fill*         0x020201e9        0x3 
 .bss.outputfunc
                0x020201ec        0x4 contikilib.a(tcpip.o)
 .bss.change_time
                0x020201f0        0x2 contikilib.a(tcpip.o)
 .bss.i.8075    0x020201f2        0x1 contikilib.a(tcpip.o)
 *fill*         0x020201f3        0x5 
 .bss.timer.5380
                0x020201f8       0x18 contikilib.a(uip_arp.o)
 .bss.tmpage    0x02020210        0x1 contikilib.a(uip_arp.o)
 *fill*         0x02020211        0x1 
 .bss.arp_table
                0x02020212       0x60 contikilib.a(uip_arp.o)
 *fill*         0x02020272        0x6 
 .bss.polltimer.5391
                0x02020278       0x18 contikilib.a(uip_arp.o)
 .bss.arptime   0x02020290        0x4 contikilib.a(uip_arp.o)
 .bss.ipaddr    0x02020294        0x4 contikilib.a(uip_arp.o)
 .bss.uip_lladdr
                0x02020298        0x6 contikilib.a(uip.o)
                0x02020298                uip_lladdr
 .bss.ipid      0x0202029e        0x2 contikilib.a(uip.o)
 .bss.iss       0x020202a0        0x4 contikilib.a(uip.o)
 .bss.tmp16     0x020202a4        0x2 contikilib.a(uip.o)
 .bss.lastport  0x020202a6        0x2 contikilib.a(uip.o)
 .bss.c         0x020202a8        0x1 contikilib.a(uip.o)
 .bss.opt       0x020202a9        0x1 contikilib.a(uip.o)
 .bss.link_router_flag
                0x020202aa        0x1 contikilib.a(dhcpc.o)
                0x020202aa                link_router_flag
 *fill*         0x020202ab        0x5 
 .bss.s         0x020202b0       0x48 contikilib.a(dhcpc.o)
 .bss.xid       0x020202f8        0x4 contikilib.a(dhcpc.o)
 .bss.dhcptrycnt.7790
                0x020202fc        0x1 contikilib.a(dhcpc.o)
 *fill*         0x020202fd        0x3 
 .bss.ctimer_list_list
                0x02020300        0x4 icomlib.a(ctimer.o)
 .bss.initialized
                0x02020304        0x1 icomlib.a(ctimer.o)
 *fill*         0x02020305        0x3 
 .bss.SerialEnable
                0x02020308        0x4 icomlib.a(serial_api.o)
 .bss.sslrecvoffset
                0x0202030c        0x2 icomlib.a(ssl_api.o)
                0x0202030c                sslrecvoffset
 *fill*         0x0202030e        0x2 
 .bss.gsslrecord
                0x02020310       0x20 icomlib.a(ssl_api.o)
 .bss.gMatrixPrng
                0x02020330        0x4 icomlib.a(prng.o)
 .bss.gPrngInit
                0x02020334        0x2 icomlib.a(prng.o)
 .bss.ip_str.5808
                0x02020336       0x10 ./thirdPartyLib/libdtlib.a(common_general_)
 .bss.ip_table.5820
                0x02020346        0x5 ./thirdPartyLib/libdtlib.a(common_general_)
 .bss.type_str.5824
                0x0202034b        0x5 ./thirdPartyLib/libdtlib.a(common_general_)
 .bss.array_information.5798
                0x02020350      0x104 ./thirdPartyLib/libdtlib.a(common_general_)
 .bss.mqtt_heartbeat_count.6513
                0x02020454        0x1 ./thirdPartyLib/libdtlib.a(udp_listen.o)
 *fill*         0x02020455        0x1 
 .bss.peeraddr.6463
                0x02020456        0x4 ./thirdPartyLib/libdtlib.a(udp_listen.o)
 *fill*         0x0202045a        0x6 
 .bss.timer.6512
                0x02020460       0x18 ./thirdPartyLib/libdtlib.a(udp_listen.o)
 .bss.once_first_broadcast_count.6511
                0x02020478        0x1 ./thirdPartyLib/libdtlib.a(udp_listen.o)
 .bss.mqtt_msg.6977
                0x02020479       0xff ./thirdPartyLib/libdtlib.a(dt_mqtt.o)
 .bss.ret.6975  0x02020578        0x1 ./thirdPartyLib/libdtlib.a(dt_mqtt.o)
 .bss.mqtt_client_id.6971
                0x02020579       0x46 ./thirdPartyLib/libdtlib.a(dt_mqtt.o)
 .bss.server_ip_str.6976
                0x020205bf       0x10 ./thirdPartyLib/libdtlib.a(dt_mqtt.o)
 *fill*         0x020205cf        0x1 
 .bss.send_pack.6974
                0x020205d0      0x104 ./thirdPartyLib/libdtlib.a(dt_mqtt.o)
 .bss.mqtt_subscribe_topice.6963
                0x020206d4       0x1e ./thirdPartyLib/libdtlib.a(dt_mqtt.o)
 *fill*         0x020206f2        0x2 
 .bss.user_mqtt_call
                0x020206f4       0x10 ./thirdPartyLib/libdtlib.a(dt_mqtt.o)
 .bss.mqtt_topic.6972
                0x02020704       0x32 ./thirdPartyLib/libdtlib.a(dt_mqtt.o)
 *fill*         0x02020736        0x2 
 .bss.len.6973  0x02020738        0x4 ./thirdPartyLib/libdtlib.a(dt_mqtt.o)
 .bss.mqtt_client_id_length.6962
                0x0202073c        0x2 ./thirdPartyLib/libdtlib.a(dt_mqtt.o)
 *fill*         0x0202073e        0x2 
 .bss.user_tcp_call
                0x02020740       0x10 ./thirdPartyLib/libdtlib.a(dt_tcp_serve.o)
 .bss.i.6444    0x02020750        0x1 ./thirdPartyLib/libdtlib.a(dt_tcp_serve.o)
 *fill*         0x02020751        0x3 
 .bss.send_pack.6430
                0x02020754      0x104 ./thirdPartyLib/libdtlib.a(dt_tcp_serve.o)
 .bss.i.6429    0x02020858        0x1 ./thirdPartyLib/libdtlib.a(dt_tcp_serve.o)
 .bss.i.6413    0x02020859        0x1 ./thirdPartyLib/libdtlib.a(dt_tcp_serve.o)
 *fill*         0x0202085a        0x2 
 .bss.__malloc_current_mallinfo
                0x0202085c       0x28 /usr/bin/../lib/gcc/arm-none-eabi/4.8.4/../../../../arm-none-eabi/lib/libg_s.a(lib_a-nano-mallinfor.o)
                0x0202085c                __malloc_current_mallinfo
 .bss.__malloc_sbrk_start
                0x02020884        0x4 /usr/bin/../lib/gcc/arm-none-eabi/4.8.4/../../../../arm-none-eabi/lib/libg_s.a(lib_a-nano-mallocr.o)
                0x02020884                __malloc_sbrk_start
 .bss.__malloc_free_list
                0x02020888        0x4 /usr/bin/../lib/gcc/arm-none-eabi/4.8.4/../../../../arm-none-eabi/lib/libg_s.a(lib_a-nano-mallocr.o)
                0x02020888                __malloc_free_list
 *(EXCLUDE_FILE(icomlib.a:boot-hiflying.o) COMMON)
 COMMON         0x0202088c     0x11ea ssv6060-main.o
                0x0202088c                arp_packet_len
                0x0202088e                arp_packet_buff
                0x020208de                ap_list
                0x02021a72                CMD_NUM
                0x02021a73                DATA_STATUS
                0x02021a74                process_para
 *fill*         0x02021a76        0x2 
 COMMON         0x02021a78       0x80 icomlib.a(contiki-main.o)
                0x02021a78                i_config
 COMMON         0x02021af8       0x20 icomlib.a(hw_init.o)
                0x02021af8                tx_pktbuf
                0x02021b00                sk_pbuff
 COMMON         0x02021b18      0x284 icomlib.a(systemconf.o)
                0x02021b18                gwifistatus
                0x02021cf8                gCabrioConf
 COMMON         0x02021d9c      0x108 icomlib.a(smartConf.o)
                0x02021d9c                smart_rc4
 COMMON         0x02021ea4        0x8 icomlib.a(crypthw.o)
                0x02021ea4                g_soc_table
                0x02021ea8                pGSRAM_KEY
 COMMON         0x02021eac       0xd0 icomlib.a(drv_phy.o)
                0x02021eac                papd_ltbl_pm
                0x02021f14                papd_ltbl_am
 *fill*         0x02021f7c        0x4 
 COMMON         0x02021f80      0x268 icomlib.a(ieee80211_mgmt.)
                0x02021f80                rate_table
                0x02021fa0                mgmtdata
                0x020220ac                rssiLevelChangCnt
                0x020220ad                extended_rate_table
                0x020220d0                gwpa_ctx
 COMMON         0x020221e8       0x38 icomlib.a(powersave.o)
                0x020221e8                gNextsleeptime
                0x020221f8                gussleeptime
                0x02022200                gNextwaketime
                0x02022210                exmode
                0x02022218                gusbeaconinterval
 COMMON         0x02022220      0x1a8 icomlib.a(soft_ap.o)
                0x02022220                reg_ADR_TXQ4_MTX_Q_MISC_EN
                0x02022224                beacon_buffer
                0x020222a4                reg_ADR_TXQ4_MTX_Q_BKF_CNT
                0x020222a8                reg_ADR_TXQ4_MTX_Q_AIFSN
                0x020222ac                reg_ADR_TXQ3_MTX_Q_AIFSN
                0x020222b0                gwpa_ap
 COMMON         0x020223c8      0x608 icomlib.a(ssv6200_rx.o)
                0x020223c8                rx_que
 COMMON         0x020229d0      0xcfa icomlib.a(wep.o)
                0x020229d0                wep_rc4
                0x02022ad8                wep
 *fill*         0x020236ca        0x2 
 COMMON         0x020236cc      0x111 icomlib.a(atcmdlib.o)
                0x020236cc                atcmd_ctx
                0x020237dc                specialchar
 *fill*         0x020237dd        0x1 
 COMMON         0x020237de        0xc icomlib.a(atcmd_icomm.o)
                0x020237de                gNetStatus
 *fill*         0x020237ea        0x2 
 COMMON         0x020237ec       0x20 icomlib.a(drv_flash.o)
                0x020237ec                u32cmd_lenx
                0x020237f0                i_cabrio_flash_cmd
                0x02023804                u32spi_addr
                0x02023808                u32cmd_len
 COMMON         0x0202380c        0x4 icomlib.a(fence.o)
                0x0202380c                addr_stack_fence_local
 COMMON         0x02023810        0x4 icomlib.a(smartComm.o)
                0x02023810                gSocketNetStatus
 *fill*         0x02023814        0x4 
 COMMON         0x02023818       0x20 icomlib.a(ieee80211_mac.o)
                0x02023818                rx_skb
                0x02023830                eapoltxcnt
                0x02023834                eapoladdr
 COMMON         0x02023838        0x4 icomlib.a(ieee80211_net.o)
                0x02023838                nPingEcho
 COMMON         0x0202383c       0x30 icomapps.a(atcmd_mqtt.o)
                0x0202383c                ty_mqtt_rx_queue
                0x02023854                ty_mqtt_tx_queue
 COMMON         0x0202386c      0x110 icomapps.a(data_buff.o)
                0x0202386c                app_res
 COMMON         0x0202397c       0x24 icomapps.a(hx_sta_conn.o)
                0x0202397c                current_daytime
 COMMON         0x020239a0       0x2c icomapps.a(MyThread.o)
                0x020239a0                event_post
                0x020239a4                func_connect_ap
                0x020239a8                R_btaSerialNUmber
                0x020239b8                cb_reconnect_ap
                0x020239c0                R_u64MyThread_StartTime
                0x020239c8                cb_disconnect_ap
 COMMON         0x020239cc      0x3fc icomapps.a(ota_api.o)
                0x020239cc                ota_conf
 COMMON         0x02023dc8       0x68 icomapps.a(soft_ap_init.o)
                0x02023dc8                g_softap_lease
                0x02023e18                g_softap_config
 COMMON         0x02023e30        0x4 icomapps.a(wifi_uart_demo.)
                0x02023e30                func_do_with_uart_queue
 COMMON         0x02023e34       0x56 icomapps.a(szcloud_intf.o)
                0x02023e34                tcp_user_callb
                0x02023e44                mqtt_user_callb
                0x02023e54                wifi_station_info
                0x02023e68                user_flash_data
 *fill*         0x02023e8a        0x2 
 COMMON         0x02023e8c        0x5 icomapps.a(net.o)
                0x02023e8c                pHost
                0x02023e90                hekr_is_login_process
 *fill*         0x02023e91        0x3 
 COMMON         0x02023e94       0x34 icomapps.a(uart.o)
                0x02023e94                uart_rx_queue
                0x02023eac                uart_tx_queue
                0x02023ec4                p_uart_rx_buff
 COMMON         0x02023ec8      0x1f5 contikilib.a(mqtt.o)
                0x02023ec8                mqtt_update_event
                0x02023ec9                sslrecv
 *fill*         0x020240bd        0x3 
 COMMON         0x020240c0       0x34 contikilib.a(ntp_client.o)
                0x020240c0                now_seconds
                0x020240c4                packetBuffer
 COMMON         0x020240f4        0x1 contikilib.a(resolv.o)
                0x020240f4                resolv_event_found
 COMMON         0x020240f5        0x1 contikilib.a(tcpip.o)
                0x020240f5                tcpip_event
 *fill*         0x020240f6        0x2 
 COMMON         0x020240f8      0xa18 contikilib.a(uip.o)
                0x020240f8                uip_len
                0x020240fc                uip_sappdata
                0x02024100                uip_acc32
                0x02024104                uip_aligned_buf
                0x020246f0                uip_flags
                0x020246f4                uip_udp_conn
                0x020246f8                uip_appdata
                0x020246fc                uip_conn
                0x02024700                rxBUF
                0x02024704                uip_conns
                0x0202495c                uip_listenports
                0x02024970                uip_draddr
                0x02024974                uip_netmask
                0x02024978                uip_hostaddr
                0x0202497c                uip_slen
                0x02024980                uip_udp_conns
 COMMON         0x02024b10      0x10c contikilib.a(dhcpc.o)
                0x02024b10                eventdata
 COMMON         0x02024c1c      0x5cc ./thirdPartyLib/libdtlib.a(common_general_)
                0x02024c1c                save_param
 COMMON         0x020251e8       0x5c ./thirdPartyLib/libdtlib.a(dt_mqtt.o)
                0x020251e8                broker
 COMMON         0x02025244        0x4 /usr/bin/../lib/gcc/arm-none-eabi/4.8.4/../../../../arm-none-eabi/lib/libg_s.a(lib_a-reent.o)
                0x02025244                errno
                0x02025250                . = ALIGN (0x10)
 *fill*         0x02025248        0x8 
                0x02025250                __bss_end__ = .
                0x03000190                _btext_beg_src = LOADADDR (boot_in_sram)
                0x02029000                _btext_beg_dst = _vma_boot_text_beg
                0x02029d40                _btext_end_dst = (_btext_beg_dst + SIZEOF (boot_in_sram))

boot_in_sram    0x02029000      0xd40 load address 0x03000190
                0x02029000                . = ALIGN (0x4)
 icomlib.a:boot-hiflying.o(.text)
 .text          0x02029000        0x0 icomlib.a(boot-hiflying.o)
 icomlib.a:boot-hiflying.o(.text.*)
 .text.boot_memcpy
                0x02029000       0x1c icomlib.a(boot-hiflying.o)
                0x02029000                boot_memcpy
 .text.drv_boot_uart_rx
                0x0202901c       0x20 icomlib.a(boot-hiflying.o)
                0x0202901c                drv_boot_uart_rx
 .text.drv_boot_uart_tx
                0x0202903c       0x24 icomlib.a(boot-hiflying.o)
                0x0202903c                drv_boot_uart_tx
 .text.boot_put_hex
                0x02029060       0x28 icomlib.a(boot-hiflying.o)
                0x02029060                boot_put_hex
 .text.boot_print
                0x02029088       0x64 icomlib.a(boot-hiflying.o)
                0x02029088                boot_print
 .text.boot_get_args
                0x020290ec      0x178 icomlib.a(boot-hiflying.o)
                0x020290ec                boot_get_args
 .text.boot_uart_chk_sum
                0x02029264       0x30 icomlib.a(boot-hiflying.o)
                0x02029264                boot_uart_chk_sum
 .text.boot_fw_upgrade_response0
                0x02029294       0x28 icomlib.a(boot-hiflying.o)
                0x02029294                boot_fw_upgrade_response0
 .text.boot_fw_upgrade_response1
                0x020292bc       0x10 icomlib.a(boot-hiflying.o)
                0x020292bc                boot_fw_upgrade_response1
 .text.boot_flash_get_cache_buffer_address
                0x020292cc        0xc icomlib.a(boot-hiflying.o)
                0x020292cc                boot_flash_get_cache_buffer_address
 .text.drv_boot_flash_command_init
                0x020292d8       0x7c icomlib.a(boot-hiflying.o)
                0x020292d8                drv_boot_flash_command_init
 .text.drv_boot_flash_wait_spi_busy
                0x02029354       0x34 icomlib.a(boot-hiflying.o)
                0x02029354                drv_boot_flash_wait_spi_busy
 .text.drv_boot_flash_write_cmd
                0x02029388       0x14 icomlib.a(boot-hiflying.o)
                0x02029388                drv_boot_flash_write_cmd
 .text.drv_boot_flash_read_spi_status_regsiter
                0x0202939c       0x64 icomlib.a(boot-hiflying.o)
                0x0202939c                drv_boot_flash_read_spi_status_regsiter
 .text.drv_boot_flash_wait_spi_status_regsiter
                0x02029400       0x3c icomlib.a(boot-hiflying.o)
                0x02029400                drv_boot_flash_wait_spi_status_regsiter
 .text.drv_boot_flash_write_enable
                0x0202943c       0x48 icomlib.a(boot-hiflying.o)
                0x0202943c                drv_boot_flash_write_enable
 .text.drv_boot_flash_sector_erase
                0x02029484       0x54 icomlib.a(boot-hiflying.o)
                0x02029484                drv_boot_flash_sector_erase
 .text.drv_boot_flash_page_program
                0x020294d8       0x5c icomlib.a(boot-hiflying.o)
                0x020294d8                drv_boot_flash_page_program
 .text.boot_flash_flush_cache_buffer
                0x02029534       0x7c icomlib.a(boot-hiflying.o)
                0x02029534                boot_flash_flush_cache_buffer
 .text.boot_fw_upgrade_busy_polling
                0x020295b0      0x214 icomlib.a(boot-hiflying.o)
                0x020295b0                boot_fw_upgrade_busy_polling
 .text.boot_strcmp
                0x020297c4       0x30 icomlib.a(boot-hiflying.o)
                0x020297c4                boot_strcmp
 .text.boot_start_fw_upgrade
                0x020297f4       0xf4 icomlib.a(boot-hiflying.o)
                0x020297f4                boot_start_fw_upgrade
 .text.boot_copy_nor_to_sram
                0x020298e8       0x20 icomlib.a(boot-hiflying.o)
                0x020298e8                boot_copy_nor_to_sram
 .text.boot_clear_bss
                0x02029908       0x18 icomlib.a(boot-hiflying.o)
                0x02029908                boot_clear_bss
 .text.boot_main
                0x02029920      0x230 icomlib.a(boot-hiflying.o)
                0x02029920                boot_main
 icomlib.a:boot-hiflying.o(.rodata)
 .rodata        0x02029b50       0x20 icomlib.a(boot-hiflying.o)
 icomlib.a:boot-hiflying.o(.rodata*)
 .rodata.boot_uarts
                0x02029b70        0x8 icomlib.a(boot-hiflying.o)
 .rodata.str1.1
                0x02029b78      0x1c7 icomlib.a(boot-hiflying.o)
                0x02029d40                . = ALIGN (0x4)
 *fill*         0x02029d3f        0x1 
                0x03000ed0                _sitxt1 = (_sitxt0a + SIZEOF (boot_in_sram))
                0x0202c000                _vma_boot_data_beg = ((ORIGIN (ram) + 0x30000) - 0x4000)

.boot_data      0x0202c000       0x10 load address 0x03000ed0
                0x0202c000                . = ALIGN (0x10)
                0x0202c000                _boot_dbeg_dst = .
 icomlib.a:boot-hiflying.o(.data .data*)
 .data          0x0202c000        0x0 icomlib.a(boot-hiflying.o)
 .data.os_dummy
                0x0202c000        0x4 icomlib.a(boot-hiflying.o)
                0x0202c000                os_dummy
                0x0202c010                . = ALIGN (0x10)
 *fill*         0x0202c004        0xc 
                0x0202c010                _boot_dend_dst = .
                0x03000ed0                _boot_dbeg_src = LOADADDR (.boot_data)
                0x02028000                _vma_boot_bss_beg = (_vma_boot_data_beg - 0x4000)

.boot_bss       0x0202c010     0x1400 load address 0x03000ee0
                0x0202c010                . = ALIGN (0x10)
                0x0202c010                __boot_bss_beg__ = .
 icomlib.a:boot-hiflying.o(.bss .bss* COMMON)
 .bss           0x0202c010        0x0 icomlib.a(boot-hiflying.o)
 COMMON         0x0202c010     0x13f4 icomlib.a(boot-hiflying.o)
                0x0202c010                os_tbeg_dst
                0x0202c014                msg_fw_up_end
                0x0202c034                os_bss_end
                0x0202c038                os_bss_beg
                0x0202c03c                os_tend_dst
                0x0202c040                msg_fw_up_start
                0x0202c080                boot_au32spi_data
                0x0202c184                os_dbeg_dst
                0x0202c188                boot_au32spi_cmd
                0x0202c28c                os_dbeg_src
                0x0202c290                msg_restart
                0x0202c2b0                msg_fw_upgrade
                0x0202c2d0                os_tbeg_src
                0x0202c2d4                msg_main
                0x0202c2f4                amsg
                0x0202c3f4                boot_flash_cache_buffer
                0x0202d3f4                i_boot_cabrio_flash_cmd
                0x0202d400                os_dend_dst
                0x0202d410                . = ALIGN (0x10)
 *fill*         0x0202d404        0xc 
                0x0202d410                __boot_bss_end__ = .
                0x0202d410                . = ALIGN (0x4)

.eh_frame
 *(.eh_frame)
                0x0202d410                . = ALIGN (0x4)
                0x0202d410                . = ALIGN (0x4)
                0x0202d410                _end = .
                0x0202d410                __end__ = .
                0x02025250                __heap_start__ = __bss_end__
                0x0202e380                __heap_end__ = ((ORIGIN (ram) + 0x30000) - TOTAL_STACK_SIZE)

.ARM.attributes
                0x00000000       0x2b
 *(.ARM.attributes)
 .ARM.attributes
                0x00000000       0x18 /tmp/ccMTaEw1.o
 .ARM.attributes
                0x00000018       0x18 /tmp/ccSraQUE.o
 .ARM.attributes
                0x00000030       0x28 ssv6060-main.o
 .ARM.attributes
                0x00000058       0x28 icomlib.a(printf.o)
 .ARM.attributes
                0x00000080       0x28 icomlib.a(boot-hiflying.o)
 .ARM.attributes
                0x000000a8       0x28 icomlib.a(contiki-main.o)
 .ARM.attributes
                0x000000d0       0x28 icomlib.a(drv_uart.o)
 .ARM.attributes
                0x000000f8       0x28 icomlib.a(hw_init.o)
 .ARM.attributes
                0x00000120       0x28 icomlib.a(hw_regs_api.o)
 .ARM.attributes
                0x00000148       0x28 icomlib.a(ssv_lib.o)
 .ARM.attributes
                0x00000170       0x28 icomlib.a(systemconf.o)
 .ARM.attributes
                0x00000198       0x28 icomlib.a(wdog_api.o)
 .ARM.attributes
                0x000001c0       0x28 icomlib.a(smartSetting.o)
 .ARM.attributes
                0x000001e8       0x28 icomlib.a(smartConf.o)
 .ARM.attributes
                0x00000210       0x28 icomlib.a(bsp.o)
 .ARM.attributes
                0x00000238       0x28 icomlib.a(crypthw.o)
 .ARM.attributes
                0x00000260       0x28 icomlib.a(dbg-atcmd-api.o)
 .ARM.attributes
                0x00000288       0x28 icomlib.a(drv_mac.o)
 .ARM.attributes
                0x000002b0       0x28 icomlib.a(drv_phy.o)
 .ARM.attributes
                0x000002d8       0x28 icomlib.a(drv_pktbuf.o)
 .ARM.attributes
                0x00000300       0x28 icomlib.a(drv_pktbuf_slow)
 .ARM.attributes
                0x00000328       0x28 icomlib.a(ieee80211_mgmt.)
 .ARM.attributes
                0x00000350       0x28 icomlib.a(ieee80211_rdc.o)
 .ARM.attributes
                0x00000378       0x28 icomlib.a(irq.o)
 .ARM.attributes
                0x000003a0       0x28 icomlib.a(netstack.o)
 .ARM.attributes
                0x000003c8       0x28 icomlib.a(powersave.o)
 .ARM.attributes
                0x000003f0       0x28 icomlib.a(rate_control.o)
 .ARM.attributes
                0x00000418       0x28 icomlib.a(soft_ap.o)
 .ARM.attributes
                0x00000440       0x28 icomlib.a(ssv6200_rx.o)
 .ARM.attributes
                0x00000468       0x28 icomlib.a(ssvradio.o)
 .ARM.attributes
                0x00000490       0x28 icomlib.a(wpa.o)
 .ARM.attributes
                0x000004b8       0x28 icomlib.a(sys_status_api.)
 .ARM.attributes
                0x000004e0       0x28 icomlib.a(aes.o)
 .ARM.attributes
                0x00000508       0x28 icomlib.a(arc4.o)
 .ARM.attributes
                0x00000530       0x28 icomlib.a(wep.o)
 .ARM.attributes
                0x00000558       0x28 icomlib.a(autostart.o)
 .ARM.attributes
                0x00000580       0x28 icomlib.a(etimer.o)
 .ARM.attributes
                0x000005a8       0x28 icomlib.a(process.o)
 .ARM.attributes
                0x000005d0       0x28 icomlib.a(random.o)
 .ARM.attributes
                0x000005f8       0x28 icomlib.a(timer.o)
 .ARM.attributes
                0x00000620       0x28 icomlib.a(atcmdlib.o)
 .ARM.attributes
                0x00000648       0x28 icomlib.a(atcmd_icomm.o)
 .ARM.attributes
                0x00000670       0x28 icomlib.a(clock.o)
 .ARM.attributes
                0x00000698       0x28 icomlib.a(console.o)
 .ARM.attributes
                0x000006c0       0x28 icomlib.a(drv_flash.o)
 .ARM.attributes
                0x000006e8       0x28 icomlib.a(drv_pmu.o)
 .ARM.attributes
                0x00000710       0x28 icomlib.a(drv_timer.o)
 .ARM.attributes
                0x00000738       0x28 icomlib.a(drv_wdog.o)
 .ARM.attributes
                0x00000760       0x28 icomlib.a(fence.o)
 .ARM.attributes
                0x00000788       0x28 icomlib.a(flash_api.o)
 .ARM.attributes
                0x000007b0       0x28 icomlib.a(smartComm.o)
 .ARM.attributes
                0x000007d8       0x28 icomlib.a(ssv_lib_slow.o)
 .ARM.attributes
                0x00000800       0x28 icomlib.a(swpwm.o)
 .ARM.attributes
                0x00000828       0x28 icomlib.a(userSmart.o)
 .ARM.attributes
                0x00000850       0x28 icomlib.a(hash_alg.o)
 .ARM.attributes
                0x00000878       0x28 icomlib.a(hmac_md5.o)
 .ARM.attributes
                0x000008a0       0x28 icomlib.a(hmac_sha1.o)
 .ARM.attributes
                0x000008c8       0x28 icomlib.a(ieee80211_mac.o)
 .ARM.attributes
                0x000008f0       0x28 icomlib.a(ieee80211_net.o)
 .ARM.attributes
                0x00000918       0x28 icomlib.a(sha1.o)
 .ARM.attributes
                0x00000940       0x28 icomlib.a(ssv6200_tx.o)
 .ARM.attributes
                0x00000968       0x28 icomlib.a(md5.o)
 .ARM.attributes
                0x00000990       0x28 icomlib.a(shell-ping.o)
 .ARM.attributes
                0x000009b8       0x28 icomlib.a(drv_fence.o)
 .ARM.attributes
                0x000009e0       0x28 icomlib.a(drv_gpio.o)
 .ARM.attributes
                0x00000a08       0x28 icomlib.a(gpio_api.o)
 .ARM.attributes
                0x00000a30       0x28 icomlib.a(drv_mbox.o)
 .ARM.attributes
                0x00000a58       0x28 icomlib.a(EAPOL.o)
 .ARM.attributes
                0x00000a80       0x28 icomapps.a(atcmd_mqtt.o)
 .ARM.attributes
                0x00000aa8       0x28 icomapps.a(atcmd.o)
 .ARM.attributes
                0x00000ad0       0x28 icomapps.a(bsp_info.o)
 .ARM.attributes
                0x00000af8       0x28 icomapps.a(data_buff.o)
 .ARM.attributes
                0x00000b20       0x28 icomapps.a(hx_sta_conn.o)
 .ARM.attributes
                0x00000b48       0x28 icomapps.a(iperf_cmd.o)
 .ARM.attributes
                0x00000b70       0x28 icomapps.a(key.o)
 .ARM.attributes
                0x00000b98       0x28 icomapps.a(MyATCmd.o)
 .ARM.attributes
                0x00000bc0       0x28 icomapps.a(MyThread.o)
 .ARM.attributes
                0x00000be8       0x28 icomapps.a(ota_api.o)
 .ARM.attributes
                0x00000c10       0x28 icomapps.a(socket_app.o)
 .ARM.attributes
                0x00000c38       0x28 icomapps.a(soft_ap_init.o)
 .ARM.attributes
                0x00000c60       0x28 icomapps.a(UAMisc.o)
 .ARM.attributes
                0x00000c88       0x28 icomapps.a(UAVersion.o)
 .ARM.attributes
                0x00000cb0       0x28 icomapps.a(wifi_uart_demo.)
 .ARM.attributes
                0x00000cd8       0x28 icomapps.a(xmem.o)
 .ARM.attributes
                0x00000d00       0x28 icomapps.a(szcloud_intf.o)
 .ARM.attributes
                0x00000d28       0x28 icomapps.a(szcloud_uart.o)
 .ARM.attributes
                0x00000d50       0x28 icomapps.a(hx_flash_opt.o)
 .ARM.attributes
                0x00000d78       0x28 icomapps.a(MyCustSave.o)
 .ARM.attributes
                0x00000da0       0x28 icomapps.a(net.o)
 .ARM.attributes
                0x00000dc8       0x28 icomapps.a(uart.o)
 .ARM.attributes
                0x00000df0       0x28 contikilib.a(mqtt.o)
 .ARM.attributes
                0x00000e18       0x28 contikilib.a(ntp_client.o)
 .ARM.attributes
                0x00000e40       0x28 contikilib.a(cfs-coffee.o)
 .ARM.attributes
                0x00000e68       0x28 contikilib.a(dhcp_process.o)
 .ARM.attributes
                0x00000e90       0x28 contikilib.a(dhcps.o)
 .ARM.attributes
                0x00000eb8       0x28 contikilib.a(list.o)
 .ARM.attributes
                0x00000ee0       0x28 contikilib.a(resolv.o)
 .ARM.attributes
                0x00000f08       0x28 contikilib.a(simple-udp.o)
 .ARM.attributes
                0x00000f30       0x28 contikilib.a(socket_driver.o)
 .ARM.attributes
                0x00000f58       0x28 contikilib.a(tcp-socket.o)
 .ARM.attributes
                0x00000f80       0x28 contikilib.a(tcpip.o)
 .ARM.attributes
                0x00000fa8       0x28 contikilib.a(uip_arp.o)
 .ARM.attributes
                0x00000fd0       0x28 contikilib.a(uip.o)
 .ARM.attributes
                0x00000ff8       0x28 contikilib.a(uiplib.o)
 .ARM.attributes
                0x00001020       0x28 contikilib.a(uip-udp-packet.)
 .ARM.attributes
                0x00001048       0x28 contikilib.a(dhcpc.o)
 .ARM.attributes
                0x00001070       0x28 icomlib.a(ctimer.o)
 .ARM.attributes
                0x00001098       0x28 icomlib.a(pwm_api.o)
 .ARM.attributes
                0x000010c0       0x28 icomlib.a(serial_api.o)
 .ARM.attributes
                0x000010e8       0x28 icomlib.a(ssl_api.o)
 .ARM.attributes
                0x00001110       0x28 icomlib.a(osdep.o)
 .ARM.attributes
                0x00001138       0x28 icomlib.a(tls.o)
 .ARM.attributes
                0x00001160       0x28 icomlib.a(matrixssl.o)
 .ARM.attributes
                0x00001188       0x28 icomlib.a(matrixsslApi.o)
 .ARM.attributes
                0x000011b0       0x28 icomlib.a(sslDecode.o)
 .ARM.attributes
                0x000011d8       0x28 icomlib.a(sslEncode.o)
 .ARM.attributes
                0x00001200       0x28 icomlib.a(drv_pwm.o)
 .ARM.attributes
                0x00001228       0x28 icomlib.a(corelib.o)
 .ARM.attributes
                0x00001250       0x28 icomlib.a(prng.o)
 .ARM.attributes
                0x00001278       0x28 icomlib.a(sha1ssl.o)
 .ARM.attributes
                0x000012a0       0x28 icomlib.a(sha256.o)
 .ARM.attributes
                0x000012c8       0x28 icomlib.a(hmac.o)
 .ARM.attributes
                0x000012f0       0x28 icomlib.a(pstm.o)
 .ARM.attributes
                0x00001318       0x28 icomlib.a(pstmmonreduce.o)
 .ARM.attributes
                0x00001340       0x28 icomlib.a(pstmsqrcomba.o)
 .ARM.attributes
                0x00001368       0x28 icomlib.a(pstmmulcomba.o)
 .ARM.attributes
                0x00001390       0x28 icomlib.a(pubkey.o)
 .ARM.attributes
                0x000013b8       0x28 icomlib.a(rsa.o)
 .ARM.attributes
                0x000013e0       0x28 icomlib.a(pkcs.o)
 .ARM.attributes
                0x00001408       0x28 icomlib.a(asn1.o)
 .ARM.attributes
                0x00001430       0x28 icomlib.a(base64.o)
 .ARM.attributes
                0x00001458       0x28 icomlib.a(x509.o)
 .ARM.attributes
                0x00001480       0x28 icomlib.a(prf.o)
 .ARM.attributes
                0x000014a8       0x28 icomlib.a(cipherSuite.o)
 .ARM.attributes
                0x000014d0       0x28 icomlib.a(hsHash.o)
 .ARM.attributes
                0x000014f8       0x28 icomlib.a(time.o)
 .ARM.attributes
                0x00001520       0x28 ./thirdPartyLib/libdtlib.a(common_general_)
 .ARM.attributes
                0x00001548       0x28 ./thirdPartyLib/libdtlib.a(udp_listen.o)
 .ARM.attributes
                0x00001570       0x28 ./thirdPartyLib/libdtlib.a(dt_mqtt.o)
 .ARM.attributes
                0x00001598       0x28 ./thirdPartyLib/libdtlib.a(dt_tcp_serve.o)
 .ARM.attributes
                0x000015c0       0x18 /usr/bin/../lib/gcc/arm-none-eabi/4.8.4/libgcc.a(_udivsi3.o)
 .ARM.attributes
                0x000015d8       0x18 /usr/bin/../lib/gcc/arm-none-eabi/4.8.4/libgcc.a(_divsi3.o)
 .ARM.attributes
                0x000015f0       0x18 /usr/bin/../lib/gcc/arm-none-eabi/4.8.4/libgcc.a(_dvmd_tls.o)
 .ARM.attributes
                0x00001608       0x18 /usr/bin/../lib/gcc/arm-none-eabi/4.8.4/libgcc.a(_aeabi_ldivmod.o)
 .ARM.attributes
                0x00001620       0x18 /usr/bin/../lib/gcc/arm-none-eabi/4.8.4/libgcc.a(_aeabi_uldivmod.o)
 .ARM.attributes
                0x00001638       0x30 /usr/bin/../lib/gcc/arm-none-eabi/4.8.4/libgcc.a(bpabi.o)
 .ARM.attributes
                0x00001668       0x30 /usr/bin/../lib/gcc/arm-none-eabi/4.8.4/libgcc.a(_divdi3.o)
 .ARM.attributes
                0x00001698       0x30 /usr/bin/../lib/gcc/arm-none-eabi/4.8.4/libgcc.a(_udivdi3.o)
 .ARM.attributes
                0x000016c8       0x18 /usr/bin/../lib/gcc/arm-none-eabi/4.8.4/libgcc.a(_clzsi2.o)
 .ARM.attributes
                0x000016e0       0x30 /usr/bin/../lib/gcc/arm-none-eabi/4.8.4/../../../../arm-none-eabi/lib/libg_s.a(lib_a-atoi.o)
 .ARM.attributes
                0x00001710       0x30 /usr/bin/../lib/gcc/arm-none-eabi/4.8.4/../../../../arm-none-eabi/lib/libg_s.a(lib_a-ctype_.o)
 .ARM.attributes
                0x00001740       0x30 /usr/bin/../lib/gcc/arm-none-eabi/4.8.4/../../../../arm-none-eabi/lib/libg_s.a(lib_a-errno.o)
 .ARM.attributes
                0x00001770       0x30 /usr/bin/../lib/gcc/arm-none-eabi/4.8.4/../../../../arm-none-eabi/lib/libg_s.a(lib_a-impure.o)
 .ARM.attributes
                0x000017a0       0x30 /usr/bin/../lib/gcc/arm-none-eabi/4.8.4/../../../../arm-none-eabi/lib/libg_s.a(lib_a-malloc.o)
 .ARM.attributes
                0x000017d0       0x30 /usr/bin/../lib/gcc/arm-none-eabi/4.8.4/../../../../arm-none-eabi/lib/libg_s.a(lib_a-memmove.o)
 .ARM.attributes
                0x00001800       0x30 /usr/bin/../lib/gcc/arm-none-eabi/4.8.4/../../../../arm-none-eabi/lib/libg_s.a(lib_a-mstats.o)
 .ARM.attributes
                0x00001830       0x30 /usr/bin/../lib/gcc/arm-none-eabi/4.8.4/../../../../arm-none-eabi/lib/libg_s.a(lib_a-nano-freer.o)
 .ARM.attributes
                0x00001860       0x30 /usr/bin/../lib/gcc/arm-none-eabi/4.8.4/../../../../arm-none-eabi/lib/libg_s.a(lib_a-nano-mallinfor.o)
 .ARM.attributes
                0x00001890       0x30 /usr/bin/../lib/gcc/arm-none-eabi/4.8.4/../../../../arm-none-eabi/lib/libg_s.a(lib_a-nano-mallocr.o)
 .ARM.attributes
                0x000018c0       0x30 /usr/bin/../lib/gcc/arm-none-eabi/4.8.4/../../../../arm-none-eabi/lib/libg_s.a(lib_a-nano-malloptr.o)
 .ARM.attributes
                0x000018f0       0x30 /usr/bin/../lib/gcc/arm-none-eabi/4.8.4/../../../../arm-none-eabi/lib/libg_s.a(lib_a-nano-mallstatsr.o)
 .ARM.attributes
                0x00001920       0x30 /usr/bin/../lib/gcc/arm-none-eabi/4.8.4/../../../../arm-none-eabi/lib/libg_s.a(lib_a-rand.o)
 .ARM.attributes
                0x00001950       0x30 /usr/bin/../lib/gcc/arm-none-eabi/4.8.4/../../../../arm-none-eabi/lib/libg_s.a(lib_a-realloc.o)
 .ARM.attributes
                0x00001980       0x30 /usr/bin/../lib/gcc/arm-none-eabi/4.8.4/../../../../arm-none-eabi/lib/libg_s.a(lib_a-sbrkr.o)
 .ARM.attributes
                0x000019b0       0x30 /usr/bin/../lib/gcc/arm-none-eabi/4.8.4/../../../../arm-none-eabi/lib/libg_s.a(lib_a-strcasecmp.o)
 .ARM.attributes
                0x000019e0       0x30 /usr/bin/../lib/gcc/arm-none-eabi/4.8.4/../../../../arm-none-eabi/lib/libg_s.a(lib_a-strchr.o)
 .ARM.attributes
                0x00001a10       0x30 /usr/bin/../lib/gcc/arm-none-eabi/4.8.4/../../../../arm-none-eabi/lib/libg_s.a(lib_a-strcpy.o)
 .ARM.attributes
                0x00001a40       0x30 /usr/bin/../lib/gcc/arm-none-eabi/4.8.4/../../../../arm-none-eabi/lib/libg_s.a(lib_a-strncmp.o)
 .ARM.attributes
                0x00001a70       0x30 /usr/bin/../lib/gcc/arm-none-eabi/4.8.4/../../../../arm-none-eabi/lib/libg_s.a(lib_a-strrchr.o)
 .ARM.attributes
                0x00001aa0       0x30 /usr/bin/../lib/gcc/arm-none-eabi/4.8.4/../../../../arm-none-eabi/lib/libg_s.a(lib_a-strstr.o)
 .ARM.attributes
                0x00001ad0       0x30 /usr/bin/../lib/gcc/arm-none-eabi/4.8.4/../../../../arm-none-eabi/lib/libg_s.a(lib_a-strtol.o)
 .ARM.attributes
                0x00001b00       0x30 /usr/bin/../lib/gcc/arm-none-eabi/4.8.4/../../../../arm-none-eabi/lib/libg_s.a(lib_a-strtoul.o)
 .ARM.attributes
                0x00001b30       0x30 /usr/bin/../lib/gcc/arm-none-eabi/4.8.4/../../../../arm-none-eabi/lib/libg_s.a(lib_a-findfp.o)
 .ARM.attributes
                0x00001b60       0x30 /usr/bin/../lib/gcc/arm-none-eabi/4.8.4/../../../../arm-none-eabi/lib/libg_s.a(lib_a-fprintf.o)
 .ARM.attributes
                0x00001b90       0x30 /usr/bin/../lib/gcc/arm-none-eabi/4.8.4/../../../../arm-none-eabi/lib/libg_s.a(lib_a-fwalk.o)
 .ARM.attributes
                0x00001bc0       0x30 /usr/bin/../lib/gcc/arm-none-eabi/4.8.4/../../../../arm-none-eabi/lib/libg_s.a(lib_a-nano-reallocr.o)
 .ARM.attributes
                0x00001bf0       0x30 /usr/bin/../lib/gcc/arm-none-eabi/4.8.4/../../../../arm-none-eabi/lib/libg_s.a(lib_a-reent.o)
 .ARM.attributes
                0x00001c20       0x30 /usr/bin/../lib/gcc/arm-none-eabi/4.8.4/../../../../arm-none-eabi/lib/libg_s.a(lib_a-stdio.o)
 .ARM.attributes
                0x00001c50       0x30 /usr/bin/../lib/gcc/arm-none-eabi/4.8.4/../../../../arm-none-eabi/lib/libg_s.a(lib_a-vfprintf.o)
 .ARM.attributes
                0x00001c80       0x30 /usr/bin/../lib/gcc/arm-none-eabi/4.8.4/../../../../arm-none-eabi/lib/libg_s.a(lib_a-vfprintf_i.o)
 .ARM.attributes
                0x00001cb0       0x30 /usr/bin/../lib/gcc/arm-none-eabi/4.8.4/../../../../arm-none-eabi/lib/libg_s.a(lib_a-wbuf.o)
 .ARM.attributes
                0x00001ce0       0x30 /usr/bin/../lib/gcc/arm-none-eabi/4.8.4/../../../../arm-none-eabi/lib/libg_s.a(lib_a-writer.o)
 .ARM.attributes
                0x00001d10       0x30 /usr/bin/../lib/gcc/arm-none-eabi/4.8.4/../../../../arm-none-eabi/lib/libg_s.a(lib_a-wsetup.o)
 .ARM.attributes
                0x00001d40       0x30 /usr/bin/../lib/gcc/arm-none-eabi/4.8.4/../../../../arm-none-eabi/lib/libg_s.a(lib_a-closer.o)
 .ARM.attributes
                0x00001d70       0x30 /usr/bin/../lib/gcc/arm-none-eabi/4.8.4/../../../../arm-none-eabi/lib/libg_s.a(lib_a-fflush.o)
 .ARM.attributes
                0x00001da0       0x30 /usr/bin/../lib/gcc/arm-none-eabi/4.8.4/../../../../arm-none-eabi/lib/libg_s.a(lib_a-fvwrite.o)
 .ARM.attributes
                0x00001dd0       0x30 /usr/bin/../lib/gcc/arm-none-eabi/4.8.4/../../../../arm-none-eabi/lib/libg_s.a(lib_a-lseekr.o)
 .ARM.attributes
                0x00001e00       0x30 /usr/bin/../lib/gcc/arm-none-eabi/4.8.4/../../../../arm-none-eabi/lib/libg_s.a(lib_a-makebuf.o)
 .ARM.attributes
                0x00001e30       0x30 /usr/bin/../lib/gcc/arm-none-eabi/4.8.4/../../../../arm-none-eabi/lib/libg_s.a(lib_a-memchr-stub.o)
 .ARM.attributes
                0x00001e60       0x30 /usr/bin/../lib/gcc/arm-none-eabi/4.8.4/../../../../arm-none-eabi/lib/libg_s.a(lib_a-nano-msizer.o)
 .ARM.attributes
                0x00001e90       0x30 /usr/bin/../lib/gcc/arm-none-eabi/4.8.4/../../../../arm-none-eabi/lib/libg_s.a(lib_a-readr.o)
 .ARM.attributes
                0x00001ec0       0x30 /usr/bin/../lib/gcc/arm-none-eabi/4.8.4/../../../../arm-none-eabi/lib/libg_s.a(lib_a-fstatr.o)
 .ARM.attributes
                0x00001ef0       0x30 /usr/bin/../lib/gcc/arm-none-eabi/4.8.4/../../../../arm-none-eabi/lib/libg_s.a(lib_a-isattyr.o)
 .ARM.attributes
                0x00001f20       0x30 /usr/bin/../lib/gcc/arm-none-eabi/4.8.4/../../../../arm-none-eabi/lib/libnosys.a(close.o)
 .ARM.attributes
                0x00001f50       0x30 /usr/bin/../lib/gcc/arm-none-eabi/4.8.4/../../../../arm-none-eabi/lib/libnosys.a(fstat.o)
 .ARM.attributes
                0x00001f80       0x30 /usr/bin/../lib/gcc/arm-none-eabi/4.8.4/../../../../arm-none-eabi/lib/libnosys.a(isatty.o)
 .ARM.attributes
                0x00001fb0       0x30 /usr/bin/../lib/gcc/arm-none-eabi/4.8.4/../../../../arm-none-eabi/lib/libnosys.a(lseek.o)
 .ARM.attributes
                0x00001fe0       0x30 /usr/bin/../lib/gcc/arm-none-eabi/4.8.4/../../../../arm-none-eabi/lib/libnosys.a(read.o)
 .ARM.attributes
                0x00002010       0x30 /usr/bin/../lib/gcc/arm-none-eabi/4.8.4/../../../../arm-none-eabi/lib/libnosys.a(write.o)
 *(ARM.attributes)
                0x00002040                PROVIDE (end, .)
LOAD /tmp/ccMTaEw1.o
LOAD /tmp/ccSraQUE.o
LOAD ssv6060-main.o
LOAD icomlib.a
LOAD icomapps.a
LOAD contikilib.a
LOAD icomlib.a
LOAD ./thirdPartyLib/libairkiss.a
LOAD ./thirdPartyLib/libdtlib.a
START GROUP
LOAD /usr/bin/../lib/gcc/arm-none-eabi/4.8.4/libgcc.a
LOAD /usr/bin/../lib/gcc/arm-none-eabi/4.8.4/../../../../arm-none-eabi/lib/libg_s.a
LOAD /usr/bin/../lib/gcc/arm-none-eabi/4.8.4/../../../../arm-none-eabi/lib/libc_s.a
END GROUP
START GROUP
LOAD /usr/bin/../lib/gcc/arm-none-eabi/4.8.4/libgcc.a
LOAD /usr/bin/../lib/gcc/arm-none-eabi/4.8.4/../../../../arm-none-eabi/lib/libc_s.a
LOAD /usr/bin/../lib/gcc/arm-none-eabi/4.8.4/../../../../arm-none-eabi/lib/libnosys.a
END GROUP
START GROUP
LOAD /usr/bin/../lib/gcc/arm-none-eabi/4.8.4/libgcc.a
LOAD /usr/bin/../lib/gcc/arm-none-eabi/4.8.4/../../../../arm-none-eabi/lib/libc_s.a
LOAD /usr/bin/../lib/gcc/arm-none-eabi/4.8.4/../../../../arm-none-eabi/lib/libnosys.a
END GROUP
OUTPUT(ssv6060-main.elf elf32-littlearm)

.debug_line     0x00000000    0x1d5e7
 .debug_line    0x00000000       0xce /tmp/ccMTaEw1.o
 .debug_line    0x000000ce       0x4d /tmp/ccSraQUE.o
 .debug_line    0x0000011b      0x1d0 ssv6060-main.o
 .debug_line    0x000002eb      0x357 icomlib.a(printf.o)
 .debug_line    0x00000642      0x478 icomlib.a(boot-hiflying.o)
 .debug_line    0x00000aba      0x2f9 icomlib.a(contiki-main.o)
 .debug_line    0x00000db3      0x1c0 icomlib.a(drv_uart.o)
 .debug_line    0x00000f73      0x3ad icomlib.a(hw_init.o)
 .debug_line    0x00001320       0x8b icomlib.a(hw_regs_api.o)
 .debug_line    0x000013ab      0x2ba icomlib.a(ssv_lib.o)
 .debug_line    0x00001665      0x3ed icomlib.a(systemconf.o)
 .debug_line    0x00001a52      0x1d4 icomlib.a(wdog_api.o)
 .debug_line    0x00001c26      0x1bc icomlib.a(smartSetting.o)
 .debug_line    0x00001de2      0x3f3 icomlib.a(smartConf.o)
 .debug_line    0x000021d5      0x2a6 icomlib.a(bsp.o)
 .debug_line    0x0000247b      0x19f icomlib.a(crypthw.o)
 .debug_line    0x0000261a     0x10ce icomlib.a(dbg-atcmd-api.o)
 .debug_line    0x000036e8      0x24b icomlib.a(drv_mac.o)
 .debug_line    0x00003933      0xb8c icomlib.a(drv_phy.o)
 .debug_line    0x000044bf      0x2e7 icomlib.a(drv_pktbuf.o)
 .debug_line    0x000047a6      0x10d icomlib.a(drv_pktbuf_slow)
 .debug_line    0x000048b3      0xc1f icomlib.a(ieee80211_mgmt.)
 .debug_line    0x000054d2      0x1f1 icomlib.a(ieee80211_rdc.o)
 .debug_line    0x000056c3      0x195 icomlib.a(irq.o)
 .debug_line    0x00005858       0x82 icomlib.a(netstack.o)
 .debug_line    0x000058da      0x31a icomlib.a(powersave.o)
 .debug_line    0x00005bf4      0x212 icomlib.a(rate_control.o)
 .debug_line    0x00005e06      0xca7 icomlib.a(soft_ap.o)
 .debug_line    0x00006aad      0x4f4 icomlib.a(ssv6200_rx.o)
 .debug_line    0x00006fa1      0x37c icomlib.a(ssvradio.o)
 .debug_line    0x0000731d      0x69e icomlib.a(wpa.o)
 .debug_line    0x000079bb      0x46d icomlib.a(sys_status_api.)
 .debug_line    0x00007e28      0x543 icomlib.a(aes.o)
 .debug_line    0x0000836b       0xf3 icomlib.a(arc4.o)
 .debug_line    0x0000845e      0x467 icomlib.a(wep.o)
 .debug_line    0x000088c5       0x95 icomlib.a(autostart.o)
 .debug_line    0x0000895a      0x20a icomlib.a(etimer.o)
 .debug_line    0x00008b64      0x226 icomlib.a(process.o)
 .debug_line    0x00008d8a       0x74 icomlib.a(random.o)
 .debug_line    0x00008dfe       0xc9 icomlib.a(timer.o)
 .debug_line    0x00008ec7      0x2ba icomlib.a(atcmdlib.o)
 .debug_line    0x00009181      0x881 icomlib.a(atcmd_icomm.o)
 .debug_line    0x00009a02      0x1e3 icomlib.a(clock.o)
 .debug_line    0x00009be5       0x83 icomlib.a(console.o)
 .debug_line    0x00009c68      0x27b icomlib.a(drv_flash.o)
 .debug_line    0x00009ee3      0x1e9 icomlib.a(drv_pmu.o)
 .debug_line    0x0000a0cc       0x98 icomlib.a(drv_timer.o)
 .debug_line    0x0000a164       0xab icomlib.a(drv_wdog.o)
 .debug_line    0x0000a20f       0x9c icomlib.a(fence.o)
 .debug_line    0x0000a2ab      0x2e7 icomlib.a(flash_api.o)
 .debug_line    0x0000a592      0x52a icomlib.a(smartComm.o)
 .debug_line    0x0000aabc      0x13b icomlib.a(ssv_lib_slow.o)
 .debug_line    0x0000abf7      0x22d icomlib.a(swpwm.o)
 .debug_line    0x0000ae24      0x3af icomlib.a(userSmart.o)
 .debug_line    0x0000b1d3      0x139 icomlib.a(hash_alg.o)
 .debug_line    0x0000b30c      0x11d icomlib.a(hmac_md5.o)
 .debug_line    0x0000b429      0x16d icomlib.a(hmac_sha1.o)
 .debug_line    0x0000b596      0x40a icomlib.a(ieee80211_mac.o)
 .debug_line    0x0000b9a0      0x265 icomlib.a(ieee80211_net.o)
 .debug_line    0x0000bc05      0x139 icomlib.a(sha1.o)
 .debug_line    0x0000bd3e      0x2c7 icomlib.a(ssv6200_tx.o)
 .debug_line    0x0000c005      0x272 icomlib.a(md5.o)
 .debug_line    0x0000c277      0x20f icomlib.a(shell-ping.o)
 .debug_line    0x0000c486       0x82 icomlib.a(drv_fence.o)
 .debug_line    0x0000c508      0x152 icomlib.a(drv_gpio.o)
 .debug_line    0x0000c65a       0xe7 icomlib.a(gpio_api.o)
 .debug_line    0x0000c741       0xbe icomlib.a(drv_mbox.o)
 .debug_line    0x0000c7ff      0x1d6 icomlib.a(EAPOL.o)
 .debug_line    0x0000c9d5      0x36f icomapps.a(atcmd_mqtt.o)
 .debug_line    0x0000cd44      0xd7d icomapps.a(atcmd.o)
 .debug_line    0x0000dac1      0x30a icomapps.a(bsp_info.o)
 .debug_line    0x0000ddcb      0x5af icomapps.a(data_buff.o)
 .debug_line    0x0000e37a      0x423 icomapps.a(hx_sta_conn.o)
 .debug_line    0x0000e79d      0x155 icomapps.a(iperf_cmd.o)
 .debug_line    0x0000e8f2      0x31d icomapps.a(key.o)
 .debug_line    0x0000ec0f      0x4e1 icomapps.a(MyATCmd.o)
 .debug_line    0x0000f0f0      0x60c icomapps.a(MyThread.o)
 .debug_line    0x0000f6fc      0x7b9 icomapps.a(ota_api.o)
 .debug_line    0x0000feb5      0x417 icomapps.a(socket_app.o)
 .debug_line    0x000102cc      0x2e1 icomapps.a(soft_ap_init.o)
 .debug_line    0x000105ad      0x231 icomapps.a(UAMisc.o)
 .debug_line    0x000107de      0x13e icomapps.a(UAVersion.o)
 .debug_line    0x0001091c      0x364 icomapps.a(wifi_uart_demo.)
 .debug_line    0x00010c80      0x1eb icomapps.a(xmem.o)
 .debug_line    0x00010e6b      0x3a2 icomapps.a(szcloud_intf.o)
 .debug_line    0x0001120d      0x317 icomapps.a(szcloud_uart.o)
 .debug_line    0x00011524      0x67a icomapps.a(hx_flash_opt.o)
 .debug_line    0x00011b9e      0x232 icomapps.a(MyCustSave.o)
 .debug_line    0x00011dd0      0x4be icomapps.a(net.o)
 .debug_line    0x0001228e      0x330 icomapps.a(uart.o)
 .debug_line    0x000125be      0x8fe contikilib.a(mqtt.o)
 .debug_line    0x00012ebc      0x3f8 contikilib.a(ntp_client.o)
 .debug_line    0x000132b4      0x60a contikilib.a(cfs-coffee.o)
 .debug_line    0x000138be      0x232 contikilib.a(dhcp_process.o)
 .debug_line    0x00013af0      0x551 contikilib.a(dhcps.o)
 .debug_line    0x00014041      0x15b contikilib.a(list.o)
 .debug_line    0x0001419c      0x35b contikilib.a(resolv.o)
 .debug_line    0x000144f7      0x21c contikilib.a(simple-udp.o)
 .debug_line    0x00014713      0x3a8 contikilib.a(socket_driver.o)
 .debug_line    0x00014abb      0x373 contikilib.a(tcp-socket.o)
 .debug_line    0x00014e2e      0x439 contikilib.a(tcpip.o)
 .debug_line    0x00015267      0x3c2 contikilib.a(uip_arp.o)
 .debug_line    0x00015629      0x888 contikilib.a(uip.o)
 .debug_line    0x00015eb1       0xfc contikilib.a(uiplib.o)
 .debug_line    0x00015fad      0x13b contikilib.a(uip-udp-packet.)
 .debug_line    0x000160e8      0x47c contikilib.a(dhcpc.o)
 .debug_line    0x00016564      0x1af icomlib.a(ctimer.o)
 .debug_line    0x00016713       0xa7 icomlib.a(pwm_api.o)
 .debug_line    0x000167ba       0xc9 icomlib.a(serial_api.o)
 .debug_line    0x00016883      0x479 icomlib.a(ssl_api.o)
 .debug_line    0x00016cfc      0x27a icomlib.a(osdep.o)
 .debug_line    0x00016f76      0x30b icomlib.a(tls.o)
 .debug_line    0x00017281      0x589 icomlib.a(matrixssl.o)
 .debug_line    0x0001780a      0x601 icomlib.a(matrixsslApi.o)
 .debug_line    0x00017e0b      0x62e icomlib.a(sslDecode.o)
 .debug_line    0x00018439      0x9b4 icomlib.a(sslEncode.o)
 .debug_line    0x00018ded       0xca icomlib.a(drv_pwm.o)
 .debug_line    0x00018eb7      0x229 icomlib.a(corelib.o)
 .debug_line    0x000190e0       0xdb icomlib.a(prng.o)
 .debug_line    0x000191bb      0x229 icomlib.a(sha1ssl.o)
 .debug_line    0x000193e4      0x239 icomlib.a(sha256.o)
 .debug_line    0x0001961d      0x387 icomlib.a(hmac.o)
 .debug_line    0x000199a4      0xa96 icomlib.a(pstm.o)
 .debug_line    0x0001a43a      0x1a3 icomlib.a(pstmmonreduce.o)
 .debug_line    0x0001a5dd      0x16e icomlib.a(pstmsqrcomba.o)
 .debug_line    0x0001a74b      0x15c icomlib.a(pstmmulcomba.o)
 .debug_line    0x0001a8a7      0x165 icomlib.a(pubkey.o)
 .debug_line    0x0001aa0c      0x27d icomlib.a(rsa.o)
 .debug_line    0x0001ac89      0x2a3 icomlib.a(pkcs.o)
 .debug_line    0x0001af2c      0x33c icomlib.a(asn1.o)
 .debug_line    0x0001b268       0xa1 icomlib.a(base64.o)
 .debug_line    0x0001b309      0xa52 icomlib.a(x509.o)
 .debug_line    0x0001bd5b      0x1ad icomlib.a(prf.o)
 .debug_line    0x0001bf08      0x389 icomlib.a(cipherSuite.o)
 .debug_line    0x0001c291      0x1d8 icomlib.a(hsHash.o)
 .debug_line    0x0001c469       0xea icomlib.a(time.o)
 .debug_line    0x0001c553      0x26f ./thirdPartyLib/libdtlib.a(common_general_)
 .debug_line    0x0001c7c2      0x582 ./thirdPartyLib/libdtlib.a(udp_listen.o)
 .debug_line    0x0001cd44      0x5c8 ./thirdPartyLib/libdtlib.a(dt_mqtt.o)
 .debug_line    0x0001d30c      0x2db ./thirdPartyLib/libdtlib.a(dt_tcp_serve.o)

.debug_info     0x00000000    0x9a3f2
 .debug_info    0x00000000       0xae /tmp/ccMTaEw1.o
 .debug_info    0x000000ae       0xb6 /tmp/ccSraQUE.o
 .debug_info    0x00000164      0x8b8 ssv6060-main.o
 .debug_info    0x00000a1c      0xa25 icomlib.a(printf.o)
 .debug_info    0x00001441     0x1523 icomlib.a(boot-hiflying.o)
 .debug_info    0x00002964      0xd52 icomlib.a(contiki-main.o)
 .debug_info    0x000036b6      0x574 icomlib.a(drv_uart.o)
 .debug_info    0x00003c2a     0x1e4b icomlib.a(hw_init.o)
 .debug_info    0x00005a75      0x1bc icomlib.a(hw_regs_api.o)
 .debug_info    0x00005c31      0x602 icomlib.a(ssv_lib.o)
 .debug_info    0x00006233     0x18ec icomlib.a(systemconf.o)
 .debug_info    0x00007b1f      0x620 icomlib.a(wdog_api.o)
 .debug_info    0x0000813f      0x537 icomlib.a(smartSetting.o)
 .debug_info    0x00008676     0x186d icomlib.a(smartConf.o)
 .debug_info    0x00009ee3      0x4a3 icomlib.a(bsp.o)
 .debug_info    0x0000a386      0x8c1 icomlib.a(crypthw.o)
 .debug_info    0x0000ac47     0x5671 icomlib.a(dbg-atcmd-api.o)
 .debug_info    0x000102b8      0xe93 icomlib.a(drv_mac.o)
 .debug_info    0x0001114b     0x2325 icomlib.a(drv_phy.o)
 .debug_info    0x00013470      0xba4 icomlib.a(drv_pktbuf.o)
 .debug_info    0x00014014      0x842 icomlib.a(drv_pktbuf_slow)
 .debug_info    0x00014856     0x5644 icomlib.a(ieee80211_mgmt.)
 .debug_info    0x00019e9a      0x6f5 icomlib.a(ieee80211_rdc.o)
 .debug_info    0x0001a58f      0x3fb icomlib.a(irq.o)
 .debug_info    0x0001a98a      0x284 icomlib.a(netstack.o)
 .debug_info    0x0001ac0e     0x1245 icomlib.a(powersave.o)
 .debug_info    0x0001be53      0xc6a icomlib.a(rate_control.o)
 .debug_info    0x0001cabd     0x4cda icomlib.a(soft_ap.o)
 .debug_info    0x00021797     0x17dc icomlib.a(ssv6200_rx.o)
 .debug_info    0x00022f73     0x13a5 icomlib.a(ssvradio.o)
 .debug_info    0x00024318     0x2f29 icomlib.a(wpa.o)
 .debug_info    0x00027241     0x1554 icomlib.a(sys_status_api.)
 .debug_info    0x00028795     0x111d icomlib.a(aes.o)
 .debug_info    0x000298b2      0x31e icomlib.a(arc4.o)
 .debug_info    0x00029bd0     0x154c icomlib.a(wep.o)
 .debug_info    0x0002b11c      0x274 icomlib.a(autostart.o)
 .debug_info    0x0002b390      0x7b5 icomlib.a(etimer.o)
 .debug_info    0x0002bb45      0x7f8 icomlib.a(process.o)
 .debug_info    0x0002c33d       0xe7 icomlib.a(random.o)
 .debug_info    0x0002c424      0x1b3 icomlib.a(timer.o)
 .debug_info    0x0002c5d7      0x9f0 icomlib.a(atcmdlib.o)
 .debug_info    0x0002cfc7     0x3f48 icomlib.a(atcmd_icomm.o)
 .debug_info    0x00030f0f      0xc1e icomlib.a(clock.o)
 .debug_info    0x00031b2d      0x13a icomlib.a(console.o)
 .debug_info    0x00031c67      0x837 icomlib.a(drv_flash.o)
 .debug_info    0x0003249e      0xc84 icomlib.a(drv_pmu.o)
 .debug_info    0x00033122      0x257 icomlib.a(drv_timer.o)
 .debug_info    0x00033379       0xec icomlib.a(drv_wdog.o)
 .debug_info    0x00033465      0x17e icomlib.a(fence.o)
 .debug_info    0x000335e3      0xac9 icomlib.a(flash_api.o)
 .debug_info    0x000340ac     0x1b12 icomlib.a(smartComm.o)
 .debug_info    0x00035bbe      0x42f icomlib.a(ssv_lib_slow.o)
 .debug_info    0x00035fed      0x4b4 icomlib.a(swpwm.o)
 .debug_info    0x000364a1     0x1249 icomlib.a(userSmart.o)
 .debug_info    0x000376ea      0x80d icomlib.a(hash_alg.o)
 .debug_info    0x00037ef7      0x46e icomlib.a(hmac_md5.o)
 .debug_info    0x00038365      0x48a icomlib.a(hmac_sha1.o)
 .debug_info    0x000387ef     0x1a42 icomlib.a(ieee80211_mac.o)
 .debug_info    0x0003a231     0x1659 icomlib.a(ieee80211_net.o)
 .debug_info    0x0003b88a      0x244 icomlib.a(sha1.o)
 .debug_info    0x0003bace     0x135e icomlib.a(ssv6200_tx.o)
 .debug_info    0x0003ce2c      0x4ee icomlib.a(md5.o)
 .debug_info    0x0003d31a      0x7bc icomlib.a(shell-ping.o)
 .debug_info    0x0003dad6      0x142 icomlib.a(drv_fence.o)
 .debug_info    0x0003dc18      0x493 icomlib.a(drv_gpio.o)
 .debug_info    0x0003e0ab      0x404 icomlib.a(gpio_api.o)
 .debug_info    0x0003e4af      0x1b9 icomlib.a(drv_mbox.o)
 .debug_info    0x0003e668     0x11d0 icomlib.a(EAPOL.o)
 .debug_info    0x0003f838     0x19d9 icomapps.a(atcmd_mqtt.o)
 .debug_info    0x00041211     0x4e40 icomapps.a(atcmd.o)
 .debug_info    0x00046051      0xfa5 icomapps.a(bsp_info.o)
 .debug_info    0x00046ff6     0x16be icomapps.a(data_buff.o)
 .debug_info    0x000486b4     0x1574 icomapps.a(hx_sta_conn.o)
 .debug_info    0x00049c28      0x3a6 icomapps.a(iperf_cmd.o)
 .debug_info    0x00049fce      0xad1 icomapps.a(key.o)
 .debug_info    0x0004aa9f     0x10ef icomapps.a(MyATCmd.o)
 .debug_info    0x0004bb8e     0x1ea8 icomapps.a(MyThread.o)
 .debug_info    0x0004da36     0x3bbe icomapps.a(ota_api.o)
 .debug_info    0x000515f4     0x1a56 icomapps.a(socket_app.o)
 .debug_info    0x0005304a     0x128b icomapps.a(soft_ap_init.o)
 .debug_info    0x000542d5      0x5c6 icomapps.a(UAMisc.o)
 .debug_info    0x0005489b      0x371 icomapps.a(UAVersion.o)
 .debug_info    0x00054c0c     0x1107 icomapps.a(wifi_uart_demo.)
 .debug_info    0x00055d13      0x6c9 icomapps.a(xmem.o)
 .debug_info    0x000563dc     0x14a9 icomapps.a(szcloud_intf.o)
 .debug_info    0x00057885      0xe59 icomapps.a(szcloud_uart.o)
 .debug_info    0x000586de     0x1a38 icomapps.a(hx_flash_opt.o)
 .debug_info    0x0005a116      0x659 icomapps.a(MyCustSave.o)
 .debug_info    0x0005a76f     0x16c8 icomapps.a(net.o)
 .debug_info    0x0005be37      0xfce icomapps.a(uart.o)
 .debug_info    0x0005ce05     0x444e contikilib.a(mqtt.o)
 .debug_info    0x00061253     0x12d5 contikilib.a(ntp_client.o)
 .debug_info    0x00062528     0x1d84 contikilib.a(cfs-coffee.o)
 .debug_info    0x000642ac      0xe0d contikilib.a(dhcp_process.o)
 .debug_info    0x000650b9     0x20fd contikilib.a(dhcps.o)
 .debug_info    0x000671b6      0x352 contikilib.a(list.o)
 .debug_info    0x00067508      0xe1d contikilib.a(resolv.o)
 .debug_info    0x00068325      0x921 contikilib.a(simple-udp.o)
 .debug_info    0x00068c46     0x115e contikilib.a(socket_driver.o)
 .debug_info    0x00069da4      0xf87 contikilib.a(tcp-socket.o)
 .debug_info    0x0006ad2b     0x1502 contikilib.a(tcpip.o)
 .debug_info    0x0006c22d      0xce0 contikilib.a(uip_arp.o)
 .debug_info    0x0006cf0d     0x1f91 contikilib.a(uip.o)
 .debug_info    0x0006ee9e      0x202 contikilib.a(uiplib.o)
 .debug_info    0x0006f0a0      0x577 contikilib.a(uip-udp-packet.)
 .debug_info    0x0006f617     0x24cf contikilib.a(dhcpc.o)
 .debug_info    0x00071ae6      0x6b8 icomlib.a(ctimer.o)
 .debug_info    0x0007219e      0x1a7 icomlib.a(pwm_api.o)
 .debug_info    0x00072345      0x345 icomlib.a(serial_api.o)
 .debug_info    0x0007268a     0x2840 icomlib.a(ssl_api.o)
 .debug_info    0x00074eca      0x629 icomlib.a(osdep.o)
 .debug_info    0x000754f3     0x1d83 icomlib.a(tls.o)
 .debug_info    0x00077276     0x2b02 icomlib.a(matrixssl.o)
 .debug_info    0x00079d78     0x29bd icomlib.a(matrixsslApi.o)
 .debug_info    0x0007c735     0x2226 icomlib.a(sslDecode.o)
 .debug_info    0x0007e95b     0x3642 icomlib.a(sslEncode.o)
 .debug_info    0x00081f9d      0x131 icomlib.a(drv_pwm.o)
 .debug_info    0x000820ce      0x8a5 icomlib.a(corelib.o)
 .debug_info    0x00082973      0x342 icomlib.a(prng.o)
 .debug_info    0x00082cb5      0x602 icomlib.a(sha1ssl.o)
 .debug_info    0x000832b7      0x643 icomlib.a(sha256.o)
 .debug_info    0x000838fa     0x1031 icomlib.a(hmac.o)
 .debug_info    0x0008492b     0x3160 icomlib.a(pstm.o)
 .debug_info    0x00087a8b      0x379 icomlib.a(pstmmonreduce.o)
 .debug_info    0x00087e04      0x47b icomlib.a(pstmsqrcomba.o)
 .debug_info    0x0008827f      0x470 icomlib.a(pstmmulcomba.o)
 .debug_info    0x000886ef      0x60c icomlib.a(pubkey.o)
 .debug_info    0x00088cfb     0x1348 icomlib.a(rsa.o)
 .debug_info    0x0008a043      0xcd5 icomlib.a(pkcs.o)
 .debug_info    0x0008ad18      0xcad icomlib.a(asn1.o)
 .debug_info    0x0008b9c5      0x16a icomlib.a(base64.o)
 .debug_info    0x0008bb2f     0x34e5 icomlib.a(x509.o)
 .debug_info    0x0008f014      0xf45 icomlib.a(prf.o)
 .debug_info    0x0008ff59     0x218e icomlib.a(cipherSuite.o)
 .debug_info    0x000920e7     0x18c4 icomlib.a(hsHash.o)
 .debug_info    0x000939ab      0x21e icomlib.a(time.o)
 .debug_info    0x00093bc9      0xda8 ./thirdPartyLib/libdtlib.a(common_general_)
 .debug_info    0x00094971     0x1e6f ./thirdPartyLib/libdtlib.a(udp_listen.o)
 .debug_info    0x000967e0     0x2b3c ./thirdPartyLib/libdtlib.a(dt_mqtt.o)
 .debug_info    0x0009931c     0x10d6 ./thirdPartyLib/libdtlib.a(dt_tcp_serve.o)

.debug_abbrev   0x00000000    0x1919b
 .debug_abbrev  0x00000000       0x12 /tmp/ccMTaEw1.o
 .debug_abbrev  0x00000012       0x14 /tmp/ccSraQUE.o
 .debug_abbrev  0x00000026      0x232 ssv6060-main.o
 .debug_abbrev  0x00000258      0x31c icomlib.a(printf.o)
 .debug_abbrev  0x00000574      0x3da icomlib.a(boot-hiflying.o)
 .debug_abbrev  0x0000094e      0x361 icomlib.a(contiki-main.o)
 .debug_abbrev  0x00000caf      0x1e9 icomlib.a(drv_uart.o)
 .debug_abbrev  0x00000e98      0x4d3 icomlib.a(hw_init.o)
 .debug_abbrev  0x0000136b       0xeb icomlib.a(hw_regs_api.o)
 .debug_abbrev  0x00001456      0x1a9 icomlib.a(ssv_lib.o)
 .debug_abbrev  0x000015ff      0x3d2 icomlib.a(systemconf.o)
 .debug_abbrev  0x000019d1      0x2a2 icomlib.a(wdog_api.o)
 .debug_abbrev  0x00001c73      0x196 icomlib.a(smartSetting.o)
 .debug_abbrev  0x00001e09      0x3d0 icomlib.a(smartConf.o)
 .debug_abbrev  0x000021d9      0x223 icomlib.a(bsp.o)
 .debug_abbrev  0x000023fc      0x229 icomlib.a(crypthw.o)
 .debug_abbrev  0x00002625      0x619 icomlib.a(dbg-atcmd-api.o)
 .debug_abbrev  0x00002c3e       0xc4 icomlib.a(drv_mac.o)
 .debug_abbrev  0x00002d02      0x323 icomlib.a(drv_phy.o)
 .debug_abbrev  0x00003025      0x33f icomlib.a(drv_pktbuf.o)
 .debug_abbrev  0x00003364      0x162 icomlib.a(drv_pktbuf_slow)
 .debug_abbrev  0x000034c6      0x637 icomlib.a(ieee80211_mgmt.)
 .debug_abbrev  0x00003afd      0x1e1 icomlib.a(ieee80211_rdc.o)
 .debug_abbrev  0x00003cde      0x1aa icomlib.a(irq.o)
 .debug_abbrev  0x00003e88       0xd8 icomlib.a(netstack.o)
 .debug_abbrev  0x00003f60      0x3b2 icomlib.a(powersave.o)
 .debug_abbrev  0x00004312      0x263 icomlib.a(rate_control.o)
 .debug_abbrev  0x00004575      0x61a icomlib.a(soft_ap.o)
 .debug_abbrev  0x00004b8f      0x476 icomlib.a(ssv6200_rx.o)
 .debug_abbrev  0x00005005      0x334 icomlib.a(ssvradio.o)
 .debug_abbrev  0x00005339      0x4ff icomlib.a(wpa.o)
 .debug_abbrev  0x00005838      0x3ee icomlib.a(sys_status_api.)
 .debug_abbrev  0x00005c26      0x2cd icomlib.a(aes.o)
 .debug_abbrev  0x00005ef3      0x190 icomlib.a(arc4.o)
 .debug_abbrev  0x00006083      0x3da icomlib.a(wep.o)
 .debug_abbrev  0x0000645d      0x170 icomlib.a(autostart.o)
 .debug_abbrev  0x000065cd      0x3c0 icomlib.a(etimer.o)
 .debug_abbrev  0x0000698d      0x3f6 icomlib.a(process.o)
 .debug_abbrev  0x00006d83       0xb5 icomlib.a(random.o)
 .debug_abbrev  0x00006e38       0xee icomlib.a(timer.o)
 .debug_abbrev  0x00006f26      0x2ad icomlib.a(atcmdlib.o)
 .debug_abbrev  0x000071d3      0x4ad icomlib.a(atcmd_icomm.o)
 .debug_abbrev  0x00007680      0x281 icomlib.a(clock.o)
 .debug_abbrev  0x00007901       0xdf icomlib.a(console.o)
 .debug_abbrev  0x000079e0      0x2e6 icomlib.a(drv_flash.o)
 .debug_abbrev  0x00007cc6      0x2b1 icomlib.a(drv_pmu.o)
 .debug_abbrev  0x00007f77      0x133 icomlib.a(drv_timer.o)
 .debug_abbrev  0x000080aa       0x76 icomlib.a(drv_wdog.o)
 .debug_abbrev  0x00008120      0x122 icomlib.a(fence.o)
 .debug_abbrev  0x00008242      0x2d4 icomlib.a(flash_api.o)
 .debug_abbrev  0x00008516      0x4ee icomlib.a(smartComm.o)
 .debug_abbrev  0x00008a04      0x164 icomlib.a(ssv_lib_slow.o)
 .debug_abbrev  0x00008b68      0x1b7 icomlib.a(swpwm.o)
 .debug_abbrev  0x00008d1f      0x31d icomlib.a(userSmart.o)
 .debug_abbrev  0x0000903c      0x180 icomlib.a(hash_alg.o)
 .debug_abbrev  0x000091bc      0x165 icomlib.a(hmac_md5.o)
 .debug_abbrev  0x00009321      0x167 icomlib.a(hmac_sha1.o)
 .debug_abbrev  0x00009488      0x56a icomlib.a(ieee80211_mac.o)
 .debug_abbrev  0x000099f2      0x3a5 icomlib.a(ieee80211_net.o)
 .debug_abbrev  0x00009d97      0x110 icomlib.a(sha1.o)
 .debug_abbrev  0x00009ea7      0x33b icomlib.a(ssv6200_tx.o)
 .debug_abbrev  0x0000a1e2      0x1f2 icomlib.a(md5.o)
 .debug_abbrev  0x0000a3d4      0x2c8 icomlib.a(shell-ping.o)
 .debug_abbrev  0x0000a69c       0xf4 icomlib.a(drv_fence.o)
 .debug_abbrev  0x0000a790      0x151 icomlib.a(drv_gpio.o)
 .debug_abbrev  0x0000a8e1      0x18d icomlib.a(gpio_api.o)
 .debug_abbrev  0x0000aa6e       0xd2 icomlib.a(drv_mbox.o)
 .debug_abbrev  0x0000ab40      0x296 icomlib.a(EAPOL.o)
 .debug_abbrev  0x0000add6      0x3b0 icomapps.a(atcmd_mqtt.o)
 .debug_abbrev  0x0000b186      0x591 icomapps.a(atcmd.o)
 .debug_abbrev  0x0000b717      0x2aa icomapps.a(bsp_info.o)
 .debug_abbrev  0x0000b9c1      0x448 icomapps.a(data_buff.o)
 .debug_abbrev  0x0000be09      0x406 icomapps.a(hx_sta_conn.o)
 .debug_abbrev  0x0000c20f       0xef icomapps.a(iperf_cmd.o)
 .debug_abbrev  0x0000c2fe      0x337 icomapps.a(key.o)
 .debug_abbrev  0x0000c635      0x2f8 icomapps.a(MyATCmd.o)
 .debug_abbrev  0x0000c92d      0x49e icomapps.a(MyThread.o)
 .debug_abbrev  0x0000cdcb      0x5fa icomapps.a(ota_api.o)
 .debug_abbrev  0x0000d3c5      0x3b7 icomapps.a(socket_app.o)
 .debug_abbrev  0x0000d77c      0x33d icomapps.a(soft_ap_init.o)
 .debug_abbrev  0x0000dab9      0x1d0 icomapps.a(UAMisc.o)
 .debug_abbrev  0x0000dc89       0xa2 icomapps.a(UAVersion.o)
 .debug_abbrev  0x0000dd2b      0x390 icomapps.a(wifi_uart_demo.)
 .debug_abbrev  0x0000e0bb      0x2d1 icomapps.a(xmem.o)
 .debug_abbrev  0x0000e38c      0x401 icomapps.a(szcloud_intf.o)
 .debug_abbrev  0x0000e78d      0x341 icomapps.a(szcloud_uart.o)
 .debug_abbrev  0x0000eace      0x434 icomapps.a(hx_flash_opt.o)
 .debug_abbrev  0x0000ef02      0x1b4 icomapps.a(MyCustSave.o)
 .debug_abbrev  0x0000f0b6      0x549 icomapps.a(net.o)
 .debug_abbrev  0x0000f5ff      0x34e icomapps.a(uart.o)
 .debug_abbrev  0x0000f94d      0x566 contikilib.a(mqtt.o)
 .debug_abbrev  0x0000feb3      0x3db contikilib.a(ntp_client.o)
 .debug_abbrev  0x0001028e      0x434 contikilib.a(cfs-coffee.o)
 .debug_abbrev  0x000106c2      0x2d0 contikilib.a(dhcp_process.o)
 .debug_abbrev  0x00010992      0x4a6 contikilib.a(dhcps.o)
 .debug_abbrev  0x00010e38      0x18a contikilib.a(list.o)
 .debug_abbrev  0x00010fc2      0x404 contikilib.a(resolv.o)
 .debug_abbrev  0x000113c6      0x297 contikilib.a(simple-udp.o)
 .debug_abbrev  0x0001165d      0x3a8 contikilib.a(socket_driver.o)
 .debug_abbrev  0x00011a05      0x3b4 contikilib.a(tcp-socket.o)
 .debug_abbrev  0x00011db9      0x44b contikilib.a(tcpip.o)
 .debug_abbrev  0x00012204      0x3b0 contikilib.a(uip_arp.o)
 .debug_abbrev  0x000125b4      0x483 contikilib.a(uip.o)
 .debug_abbrev  0x00012a37      0x123 contikilib.a(uiplib.o)
 .debug_abbrev  0x00012b5a      0x257 contikilib.a(uip-udp-packet.)
 .debug_abbrev  0x00012db1      0x537 contikilib.a(dhcpc.o)
 .debug_abbrev  0x000132e8      0x25f icomlib.a(ctimer.o)
 .debug_abbrev  0x00013547       0xfe icomlib.a(pwm_api.o)
 .debug_abbrev  0x00013645      0x1e8 icomlib.a(serial_api.o)
 .debug_abbrev  0x0001382d      0x530 icomlib.a(ssl_api.o)
 .debug_abbrev  0x00013d5d      0x223 icomlib.a(osdep.o)
 .debug_abbrev  0x00013f80      0x3d6 icomlib.a(tls.o)
 .debug_abbrev  0x00014356      0x4e1 icomlib.a(matrixssl.o)
 .debug_abbrev  0x00014837      0x4ce icomlib.a(matrixsslApi.o)
 .debug_abbrev  0x00014d05      0x3a4 icomlib.a(sslDecode.o)
 .debug_abbrev  0x000150a9      0x4cf icomlib.a(sslEncode.o)
 .debug_abbrev  0x00015578       0xa8 icomlib.a(drv_pwm.o)
 .debug_abbrev  0x00015620      0x2a0 icomlib.a(corelib.o)
 .debug_abbrev  0x000158c0      0x1bc icomlib.a(prng.o)
 .debug_abbrev  0x00015a7c      0x19e icomlib.a(sha1ssl.o)
 .debug_abbrev  0x00015c1a      0x1bc icomlib.a(sha256.o)
 .debug_abbrev  0x00015dd6      0x2a6 icomlib.a(hmac.o)
 .debug_abbrev  0x0001607c      0x3ec icomlib.a(pstm.o)
 .debug_abbrev  0x00016468      0x16b icomlib.a(pstmmonreduce.o)
 .debug_abbrev  0x000165d3      0x1ae icomlib.a(pstmsqrcomba.o)
 .debug_abbrev  0x00016781      0x1ca icomlib.a(pstmmulcomba.o)
 .debug_abbrev  0x0001694b      0x1bc icomlib.a(pubkey.o)
 .debug_abbrev  0x00016b07      0x29d icomlib.a(rsa.o)
 .debug_abbrev  0x00016da4      0x21d icomlib.a(pkcs.o)
 .debug_abbrev  0x00016fc1      0x210 icomlib.a(asn1.o)
 .debug_abbrev  0x000171d1       0xc0 icomlib.a(base64.o)
 .debug_abbrev  0x00017291      0x3e5 icomlib.a(x509.o)
 .debug_abbrev  0x00017676      0x28a icomlib.a(prf.o)
 .debug_abbrev  0x00017900      0x422 icomlib.a(cipherSuite.o)
 .debug_abbrev  0x00017d22      0x3a0 icomlib.a(hsHash.o)
 .debug_abbrev  0x000180c2       0xf5 icomlib.a(time.o)
 .debug_abbrev  0x000181b7      0x293 ./thirdPartyLib/libdtlib.a(common_general_)
 .debug_abbrev  0x0001844a      0x3fd ./thirdPartyLib/libdtlib.a(udp_listen.o)
 .debug_abbrev  0x00018847      0x58d ./thirdPartyLib/libdtlib.a(dt_mqtt.o)
 .debug_abbrev  0x00018dd4      0x3c7 ./thirdPartyLib/libdtlib.a(dt_tcp_serve.o)

.debug_aranges  0x00000000     0x4410
 .debug_aranges
                0x00000000       0x30 /tmp/ccMTaEw1.o
 .debug_aranges
                0x00000030       0x20 /tmp/ccSraQUE.o
 .debug_aranges
                0x00000050       0x28 ssv6060-main.o
 .debug_aranges
                0x00000078       0x80 icomlib.a(printf.o)
 .debug_aranges
                0x000000f8       0xe0 icomlib.a(boot-hiflying.o)
 .debug_aranges
                0x000001d8       0x58 icomlib.a(contiki-main.o)
 .debug_aranges
                0x00000230       0xa8 icomlib.a(drv_uart.o)
 .debug_aranges
                0x000002d8       0x68 icomlib.a(hw_init.o)
 .debug_aranges
                0x00000340       0x30 icomlib.a(hw_regs_api.o)
 .debug_aranges
                0x00000370       0x78 icomlib.a(ssv_lib.o)
 .debug_aranges
                0x000003e8       0x88 icomlib.a(systemconf.o)
 .debug_aranges
                0x00000470       0x50 icomlib.a(wdog_api.o)
 .debug_aranges
                0x000004c0       0x38 icomlib.a(smartSetting.o)
 .debug_aranges
                0x000004f8       0x48 icomlib.a(smartConf.o)
 .debug_aranges
                0x00000540       0x60 icomlib.a(bsp.o)
 .debug_aranges
                0x000005a0       0x58 icomlib.a(crypthw.o)
 .debug_aranges
                0x000005f8      0x320 icomlib.a(dbg-atcmd-api.o)
 .debug_aranges
                0x00000918       0xf8 icomlib.a(drv_mac.o)
 .debug_aranges
                0x00000a10      0x280 icomlib.a(drv_phy.o)
 .debug_aranges
                0x00000c90       0x70 icomlib.a(drv_pktbuf.o)
 .debug_aranges
                0x00000d00       0x20 icomlib.a(drv_pktbuf_slow)
 .debug_aranges
                0x00000d20      0x200 icomlib.a(ieee80211_mgmt.)
 .debug_aranges
                0x00000f20       0x50 icomlib.a(ieee80211_rdc.o)
 .debug_aranges
                0x00000f70       0x60 icomlib.a(irq.o)
 .debug_aranges
                0x00000fd0       0x20 icomlib.a(netstack.o)
 .debug_aranges
                0x00000ff0       0x70 icomlib.a(powersave.o)
 .debug_aranges
                0x00001060       0x50 icomlib.a(rate_control.o)
 .debug_aranges
                0x000010b0      0x200 icomlib.a(soft_ap.o)
 .debug_aranges
                0x000012b0       0x70 icomlib.a(ssv6200_rx.o)
 .debug_aranges
                0x00001320       0x78 icomlib.a(ssvradio.o)
 .debug_aranges
                0x00001398       0xd8 icomlib.a(wpa.o)
 .debug_aranges
                0x00001470       0xd8 icomlib.a(sys_status_api.)
 .debug_aranges
                0x00001548       0x90 icomlib.a(aes.o)
 .debug_aranges
                0x000015d8       0x30 icomlib.a(arc4.o)
 .debug_aranges
                0x00001608       0xc0 icomlib.a(wep.o)
 .debug_aranges
                0x000016c8       0x28 icomlib.a(autostart.o)
 .debug_aranges
                0x000016f0       0x90 icomlib.a(etimer.o)
 .debug_aranges
                0x00001780       0x98 icomlib.a(process.o)
 .debug_aranges
                0x00001818       0x28 icomlib.a(random.o)
 .debug_aranges
                0x00001840       0x40 icomlib.a(timer.o)
 .debug_aranges
                0x00001880       0x38 icomlib.a(atcmdlib.o)
 .debug_aranges
                0x000018b8      0x178 icomlib.a(atcmd_icomm.o)
 .debug_aranges
                0x00001a30       0x50 icomlib.a(clock.o)
 .debug_aranges
                0x00001a80       0x20 icomlib.a(console.o)
 .debug_aranges
                0x00001aa0       0x80 icomlib.a(drv_flash.o)
 .debug_aranges
                0x00001b20       0x50 icomlib.a(drv_pmu.o)
 .debug_aranges
                0x00001b70       0x30 icomlib.a(drv_timer.o)
 .debug_aranges
                0x00001ba0       0x40 icomlib.a(drv_wdog.o)
 .debug_aranges
                0x00001be0       0x28 icomlib.a(fence.o)
 .debug_aranges
                0x00001c08       0x70 icomlib.a(flash_api.o)
 .debug_aranges
                0x00001c78       0xf8 icomlib.a(smartComm.o)
 .debug_aranges
                0x00001d70       0x58 icomlib.a(ssv_lib_slow.o)
 .debug_aranges
                0x00001dc8       0x48 icomlib.a(swpwm.o)
 .debug_aranges
                0x00001e10       0xa0 icomlib.a(userSmart.o)
 .debug_aranges
                0x00001eb0       0x40 icomlib.a(hash_alg.o)
 .debug_aranges
                0x00001ef0       0x28 icomlib.a(hmac_md5.o)
 .debug_aranges
                0x00001f18       0x28 icomlib.a(hmac_sha1.o)
 .debug_aranges
                0x00001f40       0x88 icomlib.a(ieee80211_mac.o)
 .debug_aranges
                0x00001fc8       0x40 icomlib.a(ieee80211_net.o)
 .debug_aranges
                0x00002008       0x38 icomlib.a(sha1.o)
 .debug_aranges
                0x00002040       0x38 icomlib.a(ssv6200_tx.o)
 .debug_aranges
                0x00002078       0x40 icomlib.a(md5.o)
 .debug_aranges
                0x000020b8       0x38 icomlib.a(shell-ping.o)
 .debug_aranges
                0x000020f0       0x28 icomlib.a(drv_fence.o)
 .debug_aranges
                0x00002118       0x50 icomlib.a(drv_gpio.o)
 .debug_aranges
                0x00002168       0x40 icomlib.a(gpio_api.o)
 .debug_aranges
                0x000021a8       0x28 icomlib.a(drv_mbox.o)
 .debug_aranges
                0x000021d0       0x30 icomlib.a(EAPOL.o)
 .debug_aranges
                0x00002200       0x80 icomapps.a(atcmd_mqtt.o)
 .debug_aranges
                0x00002280      0x268 icomapps.a(atcmd.o)
 .debug_aranges
                0x000024e8       0x40 icomapps.a(bsp_info.o)
 .debug_aranges
                0x00002528      0x138 icomapps.a(data_buff.o)
 .debug_aranges
                0x00002660       0xa0 icomapps.a(hx_sta_conn.o)
 .debug_aranges
                0x00002700       0x20 icomapps.a(iperf_cmd.o)
 .debug_aranges
                0x00002720       0x38 icomapps.a(key.o)
 .debug_aranges
                0x00002758       0x80 icomapps.a(MyATCmd.o)
 .debug_aranges
                0x000027d8       0xe8 icomapps.a(MyThread.o)
 .debug_aranges
                0x000028c0       0xf8 icomapps.a(ota_api.o)
 .debug_aranges
                0x000029b8       0x90 icomapps.a(socket_app.o)
 .debug_aranges
                0x00002a48       0x48 icomapps.a(soft_ap_init.o)
 .debug_aranges
                0x00002a90       0x48 icomapps.a(UAMisc.o)
 .debug_aranges
                0x00002ad8       0x18 icomapps.a(UAVersion.o)
 .debug_aranges
                0x00002af0       0x40 icomapps.a(wifi_uart_demo.)
 .debug_aranges
                0x00002b30       0x58 icomapps.a(xmem.o)
 .debug_aranges
                0x00002b88       0x80 icomapps.a(szcloud_intf.o)
 .debug_aranges
                0x00002c08       0x70 icomapps.a(szcloud_uart.o)
 .debug_aranges
                0x00002c78      0x118 icomapps.a(hx_flash_opt.o)
 .debug_aranges
                0x00002d90       0x30 icomapps.a(MyCustSave.o)
 .debug_aranges
                0x00002dc0       0xd8 icomapps.a(net.o)
 .debug_aranges
                0x00002e98       0x68 icomapps.a(uart.o)
 .debug_aranges
                0x00002f00       0xd8 contikilib.a(mqtt.o)
 .debug_aranges
                0x00002fd8       0x58 contikilib.a(ntp_client.o)
 .debug_aranges
                0x00003030      0x108 contikilib.a(cfs-coffee.o)
 .debug_aranges
                0x00003138       0x40 contikilib.a(dhcp_process.o)
 .debug_aranges
                0x00003178       0x80 contikilib.a(dhcps.o)
 .debug_aranges
                0x000031f8       0x78 contikilib.a(list.o)
 .debug_aranges
                0x00003270       0x50 contikilib.a(resolv.o)
 .debug_aranges
                0x000032c0       0x40 contikilib.a(simple-udp.o)
 .debug_aranges
                0x00003300       0xa0 contikilib.a(socket_driver.o)
 .debug_aranges
                0x000033a0       0x88 contikilib.a(tcp-socket.o)
 .debug_aranges
                0x00003428       0xb8 contikilib.a(tcpip.o)
 .debug_aranges
                0x000034e0       0x88 contikilib.a(uip_arp.o)
 .debug_aranges
                0x00003568       0xf8 contikilib.a(uip.o)
 .debug_aranges
                0x00003660       0x20 contikilib.a(uiplib.o)
 .debug_aranges
                0x00003680       0x28 contikilib.a(uip-udp-packet.)
 .debug_aranges
                0x000036a8       0x78 contikilib.a(dhcpc.o)
 .debug_aranges
                0x00003720       0x50 icomlib.a(ctimer.o)
 .debug_aranges
                0x00003770       0x30 icomlib.a(pwm_api.o)
 .debug_aranges
                0x000037a0       0x40 icomlib.a(serial_api.o)
 .debug_aranges
                0x000037e0       0xa0 icomlib.a(ssl_api.o)
 .debug_aranges
                0x00003880       0x90 icomlib.a(osdep.o)
 .debug_aranges
                0x00003910       0x60 icomlib.a(tls.o)
 .debug_aranges
                0x00003970       0xc0 icomlib.a(matrixssl.o)
 .debug_aranges
                0x00003a30       0xa0 icomlib.a(matrixsslApi.o)
 .debug_aranges
                0x00003ad0       0x20 icomlib.a(sslDecode.o)
 .debug_aranges
                0x00003af0       0xb8 icomlib.a(sslEncode.o)
 .debug_aranges
                0x00003ba8       0x48 icomlib.a(drv_pwm.o)
 .debug_aranges
                0x00003bf0       0x68 icomlib.a(corelib.o)
 .debug_aranges
                0x00003c58       0x40 icomlib.a(prng.o)
 .debug_aranges
                0x00003c98       0x38 icomlib.a(sha1ssl.o)
 .debug_aranges
                0x00003cd0       0x38 icomlib.a(sha256.o)
 .debug_aranges
                0x00003d08       0x78 icomlib.a(hmac.o)
 .debug_aranges
                0x00003d80      0x158 icomlib.a(pstm.o)
 .debug_aranges
                0x00003ed8       0x20 icomlib.a(pstmmonreduce.o)
 .debug_aranges
                0x00003ef8       0x20 icomlib.a(pstmsqrcomba.o)
 .debug_aranges
                0x00003f18       0x20 icomlib.a(pstmmulcomba.o)
 .debug_aranges
                0x00003f38       0x38 icomlib.a(pubkey.o)
 .debug_aranges
                0x00003f70       0x58 icomlib.a(rsa.o)
 .debug_aranges
                0x00003fc8       0x50 icomlib.a(pkcs.o)
 .debug_aranges
                0x00004018       0x70 icomlib.a(asn1.o)
 .debug_aranges
                0x00004088       0x20 icomlib.a(base64.o)
 .debug_aranges
                0x000040a8       0x90 icomlib.a(x509.o)
 .debug_aranges
                0x00004138       0x28 icomlib.a(prf.o)
 .debug_aranges
                0x00004160       0xb8 icomlib.a(cipherSuite.o)
 .debug_aranges
                0x00004218       0x38 icomlib.a(hsHash.o)
 .debug_aranges
                0x00004250       0x28 icomlib.a(time.o)
 .debug_aranges
                0x00004278       0x78 ./thirdPartyLib/libdtlib.a(common_general_)
 .debug_aranges
                0x000042f0       0x78 ./thirdPartyLib/libdtlib.a(udp_listen.o)
 .debug_aranges
                0x00004368       0x70 ./thirdPartyLib/libdtlib.a(dt_mqtt.o)
 .debug_aranges
                0x000043d8       0x38 ./thirdPartyLib/libdtlib.a(dt_tcp_serve.o)

.debug_ranges   0x00000000     0x4f10
 .debug_ranges  0x00000000       0x28 /tmp/ccMTaEw1.o
 .debug_ranges  0x00000028       0x38 ssv6060-main.o
 .debug_ranges  0x00000060       0xa0 icomlib.a(printf.o)
 .debug_ranges  0x00000100       0xe8 icomlib.a(boot-hiflying.o)
 .debug_ranges  0x000001e8       0x48 icomlib.a(contiki-main.o)
 .debug_ranges  0x00000230       0x98 icomlib.a(drv_uart.o)
 .debug_ranges  0x000002c8       0x70 icomlib.a(hw_init.o)
 .debug_ranges  0x00000338       0x20 icomlib.a(hw_regs_api.o)
 .debug_ranges  0x00000358       0x68 icomlib.a(ssv_lib.o)
 .debug_ranges  0x000003c0       0x78 icomlib.a(systemconf.o)
 .debug_ranges  0x00000438       0x58 icomlib.a(wdog_api.o)
 .debug_ranges  0x00000490       0x28 icomlib.a(smartSetting.o)
 .debug_ranges  0x000004b8      0x110 icomlib.a(smartConf.o)
 .debug_ranges  0x000005c8       0x50 icomlib.a(bsp.o)
 .debug_ranges  0x00000618       0x48 icomlib.a(crypthw.o)
 .debug_ranges  0x00000660      0x3f0 icomlib.a(dbg-atcmd-api.o)
 .debug_ranges  0x00000a50       0xe8 icomlib.a(drv_mac.o)
 .debug_ranges  0x00000b38      0x270 icomlib.a(drv_phy.o)
 .debug_ranges  0x00000da8       0x60 icomlib.a(drv_pktbuf.o)
 .debug_ranges  0x00000e08       0x10 icomlib.a(drv_pktbuf_slow)
 .debug_ranges  0x00000e18      0x238 icomlib.a(ieee80211_mgmt.)
 .debug_ranges  0x00001050       0x40 icomlib.a(ieee80211_rdc.o)
 .debug_ranges  0x00001090       0x50 icomlib.a(irq.o)
 .debug_ranges  0x000010e0       0x10 icomlib.a(netstack.o)
 .debug_ranges  0x000010f0       0x90 icomlib.a(powersave.o)
 .debug_ranges  0x00001180       0x40 icomlib.a(rate_control.o)
 .debug_ranges  0x000011c0      0x238 icomlib.a(soft_ap.o)
 .debug_ranges  0x000013f8       0x90 icomlib.a(ssv6200_rx.o)
 .debug_ranges  0x00001488       0x80 icomlib.a(ssvradio.o)
 .debug_ranges  0x00001508       0xf8 icomlib.a(wpa.o)
 .debug_ranges  0x00001600       0xc8 icomlib.a(sys_status_api.)
 .debug_ranges  0x000016c8       0x98 icomlib.a(aes.o)
 .debug_ranges  0x00001760       0x50 icomlib.a(arc4.o)
 .debug_ranges  0x000017b0       0xb0 icomlib.a(wep.o)
 .debug_ranges  0x00001860       0x18 icomlib.a(autostart.o)
 .debug_ranges  0x00001878       0xc8 icomlib.a(etimer.o)
 .debug_ranges  0x00001940       0x88 icomlib.a(process.o)
 .debug_ranges  0x000019c8       0x18 icomlib.a(random.o)
 .debug_ranges  0x000019e0       0x30 icomlib.a(timer.o)
 .debug_ranges  0x00001a10       0x28 icomlib.a(atcmdlib.o)
 .debug_ranges  0x00001a38      0x198 icomlib.a(atcmd_icomm.o)
 .debug_ranges  0x00001bd0       0x40 icomlib.a(clock.o)
 .debug_ranges  0x00001c10       0x10 icomlib.a(console.o)
 .debug_ranges  0x00001c20       0x70 icomlib.a(drv_flash.o)
 .debug_ranges  0x00001c90       0x40 icomlib.a(drv_pmu.o)
 .debug_ranges  0x00001cd0       0x20 icomlib.a(drv_timer.o)
 .debug_ranges  0x00001cf0       0x30 icomlib.a(drv_wdog.o)
 .debug_ranges  0x00001d20       0x18 icomlib.a(fence.o)
 .debug_ranges  0x00001d38       0x60 icomlib.a(flash_api.o)
 .debug_ranges  0x00001d98      0x180 icomlib.a(smartComm.o)
 .debug_ranges  0x00001f18       0x48 icomlib.a(ssv_lib_slow.o)
 .debug_ranges  0x00001f60       0x38 icomlib.a(swpwm.o)
 .debug_ranges  0x00001f98       0x90 icomlib.a(userSmart.o)
 .debug_ranges  0x00002028       0x30 icomlib.a(hash_alg.o)
 .debug_ranges  0x00002058       0x18 icomlib.a(hmac_md5.o)
 .debug_ranges  0x00002070       0x18 icomlib.a(hmac_sha1.o)
 .debug_ranges  0x00002088       0x98 icomlib.a(ieee80211_mac.o)
 .debug_ranges  0x00002120       0x30 icomlib.a(ieee80211_net.o)
 .debug_ranges  0x00002150       0x28 icomlib.a(sha1.o)
 .debug_ranges  0x00002178       0x28 icomlib.a(ssv6200_tx.o)
 .debug_ranges  0x000021a0       0x30 icomlib.a(md5.o)
 .debug_ranges  0x000021d0       0x40 icomlib.a(shell-ping.o)
 .debug_ranges  0x00002210       0x18 icomlib.a(drv_fence.o)
 .debug_ranges  0x00002228       0x40 icomlib.a(drv_gpio.o)
 .debug_ranges  0x00002268       0x30 icomlib.a(gpio_api.o)
 .debug_ranges  0x00002298       0x18 icomlib.a(drv_mbox.o)
 .debug_ranges  0x000022b0       0x20 icomlib.a(EAPOL.o)
 .debug_ranges  0x000022d0       0x88 icomapps.a(atcmd_mqtt.o)
 .debug_ranges  0x00002358      0x2b8 icomapps.a(atcmd.o)
 .debug_ranges  0x00002610       0x30 icomapps.a(bsp_info.o)
 .debug_ranges  0x00002640      0x140 icomapps.a(data_buff.o)
 .debug_ranges  0x00002780       0xc8 icomapps.a(hx_sta_conn.o)
 .debug_ranges  0x00002848       0x10 icomapps.a(iperf_cmd.o)
 .debug_ranges  0x00002858       0x78 icomapps.a(key.o)
 .debug_ranges  0x000028d0       0xa8 icomapps.a(MyATCmd.o)
 .debug_ranges  0x00002978      0x220 icomapps.a(MyThread.o)
 .debug_ranges  0x00002b98      0x190 icomapps.a(ota_api.o)
 .debug_ranges  0x00002d28      0x118 icomapps.a(socket_app.o)
 .debug_ranges  0x00002e40       0x38 icomapps.a(soft_ap_init.o)
 .debug_ranges  0x00002e78       0x38 icomapps.a(UAMisc.o)
 .debug_ranges  0x00002eb0       0x88 icomapps.a(wifi_uart_demo.)
 .debug_ranges  0x00002f38       0x48 icomapps.a(xmem.o)
 .debug_ranges  0x00002f80       0x90 icomapps.a(szcloud_intf.o)
 .debug_ranges  0x00003010       0x60 icomapps.a(szcloud_uart.o)
 .debug_ranges  0x00003070      0x120 icomapps.a(hx_flash_opt.o)
 .debug_ranges  0x00003190       0x38 icomapps.a(MyCustSave.o)
 .debug_ranges  0x000031c8       0xe0 icomapps.a(net.o)
 .debug_ranges  0x000032a8       0x58 icomapps.a(uart.o)
 .debug_ranges  0x00003300      0x178 contikilib.a(mqtt.o)
 .debug_ranges  0x00003478       0x98 contikilib.a(ntp_client.o)
 .debug_ranges  0x00003510      0x128 contikilib.a(cfs-coffee.o)
 .debug_ranges  0x00003638       0x48 contikilib.a(dhcp_process.o)
 .debug_ranges  0x00003680      0x168 contikilib.a(dhcps.o)
 .debug_ranges  0x000037e8       0x68 contikilib.a(list.o)
 .debug_ranges  0x00003850       0xa0 contikilib.a(resolv.o)
 .debug_ranges  0x000038f0       0x90 contikilib.a(simple-udp.o)
 .debug_ranges  0x00003980       0xc0 contikilib.a(socket_driver.o)
 .debug_ranges  0x00003a40      0x120 contikilib.a(tcp-socket.o)
 .debug_ranges  0x00003b60      0x100 contikilib.a(tcpip.o)
 .debug_ranges  0x00003c60       0xa8 contikilib.a(uip_arp.o)
 .debug_ranges  0x00003d08       0xe8 contikilib.a(uip.o)
 .debug_ranges  0x00003df0       0x10 contikilib.a(uiplib.o)
 .debug_ranges  0x00003e00       0x18 contikilib.a(uip-udp-packet.)
 .debug_ranges  0x00003e18      0x100 contikilib.a(dhcpc.o)
 .debug_ranges  0x00003f18       0x58 icomlib.a(ctimer.o)
 .debug_ranges  0x00003f70       0x20 icomlib.a(pwm_api.o)
 .debug_ranges  0x00003f90       0x30 icomlib.a(serial_api.o)
 .debug_ranges  0x00003fc0       0xe0 icomlib.a(ssl_api.o)
 .debug_ranges  0x000040a0       0x80 icomlib.a(osdep.o)
 .debug_ranges  0x00004120       0x50 icomlib.a(tls.o)
 .debug_ranges  0x00004170       0xf8 icomlib.a(matrixssl.o)
 .debug_ranges  0x00004268       0x90 icomlib.a(matrixsslApi.o)
 .debug_ranges  0x000042f8       0x28 icomlib.a(sslDecode.o)
 .debug_ranges  0x00004320      0x140 icomlib.a(sslEncode.o)
 .debug_ranges  0x00004460       0x38 icomlib.a(drv_pwm.o)
 .debug_ranges  0x00004498       0x58 icomlib.a(corelib.o)
 .debug_ranges  0x000044f0       0x48 icomlib.a(prng.o)
 .debug_ranges  0x00004538       0x28 icomlib.a(sha1ssl.o)
 .debug_ranges  0x00004560       0x28 icomlib.a(sha256.o)
 .debug_ranges  0x00004588       0x68 icomlib.a(hmac.o)
 .debug_ranges  0x000045f0      0x1f0 icomlib.a(pstm.o)
 .debug_ranges  0x000047e0       0x10 icomlib.a(pstmmonreduce.o)
 .debug_ranges  0x000047f0       0x60 icomlib.a(pstmsqrcomba.o)
 .debug_ranges  0x00004850       0x58 icomlib.a(pstmmulcomba.o)
 .debug_ranges  0x000048a8       0x28 icomlib.a(pubkey.o)
 .debug_ranges  0x000048d0       0x48 icomlib.a(rsa.o)
 .debug_ranges  0x00004918       0x40 icomlib.a(pkcs.o)
 .debug_ranges  0x00004958       0x60 icomlib.a(asn1.o)
 .debug_ranges  0x000049b8       0x10 icomlib.a(base64.o)
 .debug_ranges  0x000049c8       0xf0 icomlib.a(x509.o)
 .debug_ranges  0x00004ab8       0x18 icomlib.a(prf.o)
 .debug_ranges  0x00004ad0       0xa8 icomlib.a(cipherSuite.o)
 .debug_ranges  0x00004b78       0x40 icomlib.a(hsHash.o)
 .debug_ranges  0x00004bb8       0x18 icomlib.a(time.o)
 .debug_ranges  0x00004bd0       0x68 ./thirdPartyLib/libdtlib.a(common_general_)
 .debug_ranges  0x00004c38       0xf0 ./thirdPartyLib/libdtlib.a(udp_listen.o)
 .debug_ranges  0x00004d28      0x190 ./thirdPartyLib/libdtlib.a(dt_mqtt.o)
 .debug_ranges  0x00004eb8       0x58 ./thirdPartyLib/libdtlib.a(dt_tcp_serve.o)

.debug_loc      0x00000000    0x38ea2
 .debug_loc     0x00000000       0xbf ssv6060-main.o
 .debug_loc     0x000000bf      0x996 icomlib.a(printf.o)
 .debug_loc     0x00000a55      0xd6b icomlib.a(boot-hiflying.o)
 .debug_loc     0x000017c0       0xaf icomlib.a(contiki-main.o)
 .debug_loc     0x0000186f      0x1d8 icomlib.a(drv_uart.o)
 .debug_loc     0x00001a47      0x531 icomlib.a(hw_init.o)
 .debug_loc     0x00001f78       0xef icomlib.a(hw_regs_api.o)
 .debug_loc     0x00002067      0x75e icomlib.a(ssv_lib.o)
 .debug_loc     0x000027c5      0x559 icomlib.a(systemconf.o)
 .debug_loc     0x00002d1e      0x194 icomlib.a(wdog_api.o)
 .debug_loc     0x00002eb2       0xd1 icomlib.a(smartSetting.o)
 .debug_loc     0x00002f83      0x8e1 icomlib.a(smartConf.o)
 .debug_loc     0x00003864       0xd1 icomlib.a(bsp.o)
 .debug_loc     0x00003935      0x5ad icomlib.a(crypthw.o)
 .debug_loc     0x00003ee2     0x291f icomlib.a(dbg-atcmd-api.o)
 .debug_loc     0x00006801      0x3e2 icomlib.a(drv_mac.o)
 .debug_loc     0x00006be3     0x1cbb icomlib.a(drv_phy.o)
 .debug_loc     0x0000889e      0x3bb icomlib.a(drv_pktbuf.o)
 .debug_loc     0x00008c59       0x75 icomlib.a(drv_pktbuf_slow)
 .debug_loc     0x00008cce     0x12fe icomlib.a(ieee80211_mgmt.)
 .debug_loc     0x00009fcc       0xc6 icomlib.a(ieee80211_rdc.o)
 .debug_loc     0x0000a092      0x3dd icomlib.a(irq.o)
 .debug_loc     0x0000a46f      0x17a icomlib.a(powersave.o)
 .debug_loc     0x0000a5e9       0x93 icomlib.a(rate_control.o)
 .debug_loc     0x0000a67c     0x1c80 icomlib.a(soft_ap.o)
 .debug_loc     0x0000c2fc      0x38e icomlib.a(ssv6200_rx.o)
 .debug_loc     0x0000c68a      0x21d icomlib.a(ssvradio.o)
 .debug_loc     0x0000c8a7     0x1188 icomlib.a(wpa.o)
 .debug_loc     0x0000da2f      0x5cb icomlib.a(sys_status_api.)
 .debug_loc     0x0000dffa     0x16a0 icomlib.a(aes.o)
 .debug_loc     0x0000f69a      0x24a icomlib.a(arc4.o)
 .debug_loc     0x0000f8e4      0x505 icomlib.a(wep.o)
 .debug_loc     0x0000fde9       0x6a icomlib.a(autostart.o)
 .debug_loc     0x0000fe53      0x404 icomlib.a(etimer.o)
 .debug_loc     0x00010257      0x3c8 icomlib.a(process.o)
 .debug_loc     0x0001061f       0x21 icomlib.a(random.o)
 .debug_loc     0x00010640       0xc3 icomlib.a(timer.o)
 .debug_loc     0x00010703      0x1b5 icomlib.a(atcmdlib.o)
 .debug_loc     0x000108b8     0x11b6 icomlib.a(atcmd_icomm.o)
 .debug_loc     0x00011a6e       0x1e icomlib.a(clock.o)
 .debug_loc     0x00011a8c       0x21 icomlib.a(console.o)
 .debug_loc     0x00011aad      0x2d9 icomlib.a(drv_flash.o)
 .debug_loc     0x00011d86       0x50 icomlib.a(drv_pmu.o)
 .debug_loc     0x00011dd6      0x218 icomlib.a(drv_timer.o)
 .debug_loc     0x00011fee       0x21 icomlib.a(fence.o)
 .debug_loc     0x0001200f      0x666 icomlib.a(flash_api.o)
 .debug_loc     0x00012675      0x403 icomlib.a(smartComm.o)
 .debug_loc     0x00012a78      0x280 icomlib.a(ssv_lib_slow.o)
 .debug_loc     0x00012cf8      0x24f icomlib.a(swpwm.o)
 .debug_loc     0x00012f47      0x324 icomlib.a(userSmart.o)
 .debug_loc     0x0001326b      0x4d4 icomlib.a(hash_alg.o)
 .debug_loc     0x0001373f       0xf1 icomlib.a(hmac_md5.o)
 .debug_loc     0x00013830      0x15a icomlib.a(hmac_sha1.o)
 .debug_loc     0x0001398a      0x371 icomlib.a(ieee80211_mac.o)
 .debug_loc     0x00013cfb      0x119 icomlib.a(ieee80211_net.o)
 .debug_loc     0x00013e14       0xbd icomlib.a(sha1.o)
 .debug_loc     0x00013ed1      0x289 icomlib.a(ssv6200_tx.o)
 .debug_loc     0x0001415a      0xc55 icomlib.a(md5.o)
 .debug_loc     0x00014daf      0x151 icomlib.a(shell-ping.o)
 .debug_loc     0x00014f00       0x58 icomlib.a(drv_fence.o)
 .debug_loc     0x00014f58      0x2ab icomlib.a(drv_gpio.o)
 .debug_loc     0x00015203      0x27c icomlib.a(gpio_api.o)
 .debug_loc     0x0001547f       0x42 icomlib.a(drv_mbox.o)
 .debug_loc     0x000154c1      0x1fe icomlib.a(EAPOL.o)
 .debug_loc     0x000156bf      0x474 icomapps.a(atcmd_mqtt.o)
 .debug_loc     0x00015b33     0x2270 icomapps.a(atcmd.o)
 .debug_loc     0x00017da3      0x257 icomapps.a(bsp_info.o)
 .debug_loc     0x00017ffa      0xd14 icomapps.a(data_buff.o)
 .debug_loc     0x00018d0e      0x28a icomapps.a(hx_sta_conn.o)
 .debug_loc     0x00018f98       0x21 icomapps.a(iperf_cmd.o)
 .debug_loc     0x00018fb9      0x334 icomapps.a(key.o)
 .debug_loc     0x000192ed      0x83f icomapps.a(MyATCmd.o)
 .debug_loc     0x00019b2c      0x6c6 icomapps.a(MyThread.o)
 .debug_loc     0x0001a1f2      0xfc6 icomapps.a(ota_api.o)
 .debug_loc     0x0001b1b8      0xb17 icomapps.a(socket_app.o)
 .debug_loc     0x0001bccf      0x349 icomapps.a(soft_ap_init.o)
 .debug_loc     0x0001c018      0x1d5 icomapps.a(UAMisc.o)
 .debug_loc     0x0001c1ed      0x642 icomapps.a(wifi_uart_demo.)
 .debug_loc     0x0001c82f      0x3d5 icomapps.a(xmem.o)
 .debug_loc     0x0001cc04      0x389 icomapps.a(szcloud_intf.o)
 .debug_loc     0x0001cf8d      0x8ad icomapps.a(szcloud_uart.o)
 .debug_loc     0x0001d83a      0x833 icomapps.a(hx_flash_opt.o)
 .debug_loc     0x0001e06d      0x2f8 icomapps.a(MyCustSave.o)
 .debug_loc     0x0001e365      0x790 icomapps.a(net.o)
 .debug_loc     0x0001eaf5      0x1e6 icomapps.a(uart.o)
 .debug_loc     0x0001ecdb     0x1711 contikilib.a(mqtt.o)
 .debug_loc     0x000203ec      0x76b contikilib.a(ntp_client.o)
 .debug_loc     0x00020b57      0xe7d contikilib.a(cfs-coffee.o)
 .debug_loc     0x000219d4      0x106 contikilib.a(dhcp_process.o)
 .debug_loc     0x00021ada      0xd8a contikilib.a(dhcps.o)
 .debug_loc     0x00022864      0x285 contikilib.a(list.o)
 .debug_loc     0x00022ae9      0x510 contikilib.a(resolv.o)
 .debug_loc     0x00022ff9      0x340 contikilib.a(simple-udp.o)
 .debug_loc     0x00023339      0x7b2 contikilib.a(socket_driver.o)
 .debug_loc     0x00023aeb      0x6cf contikilib.a(tcp-socket.o)
 .debug_loc     0x000241ba      0x750 contikilib.a(tcpip.o)
 .debug_loc     0x0002490a      0x4c1 contikilib.a(uip_arp.o)
 .debug_loc     0x00024dcb      0x73f contikilib.a(uip.o)
 .debug_loc     0x0002550a      0x1a0 contikilib.a(uiplib.o)
 .debug_loc     0x000256aa       0xfc contikilib.a(uip-udp-packet.)
 .debug_loc     0x000257a6      0x4b3 contikilib.a(dhcpc.o)
 .debug_loc     0x00025c59      0x276 icomlib.a(ctimer.o)
 .debug_loc     0x00025ecf       0x55 icomlib.a(pwm_api.o)
 .debug_loc     0x00025f24       0x78 icomlib.a(serial_api.o)
 .debug_loc     0x00025f9c      0xa95 icomlib.a(ssl_api.o)
 .debug_loc     0x00026a31      0x2fd icomlib.a(osdep.o)
 .debug_loc     0x00026d2e      0x53e icomlib.a(tls.o)
 .debug_loc     0x0002726c     0x12bf icomlib.a(matrixssl.o)
 .debug_loc     0x0002852b      0xcf6 icomlib.a(matrixsslApi.o)
 .debug_loc     0x00029221     0x13e1 icomlib.a(sslDecode.o)
 .debug_loc     0x0002a602     0x1c8e icomlib.a(sslEncode.o)
 .debug_loc     0x0002c290       0x4f icomlib.a(drv_pwm.o)
 .debug_loc     0x0002c2df      0x523 icomlib.a(corelib.o)
 .debug_loc     0x0002c802      0x155 icomlib.a(prng.o)
 .debug_loc     0x0002c957      0x4ba icomlib.a(sha1ssl.o)
 .debug_loc     0x0002ce11      0x360 icomlib.a(sha256.o)
 .debug_loc     0x0002d171      0x6bb icomlib.a(hmac.o)
 .debug_loc     0x0002d82c     0x3102 icomlib.a(pstm.o)
 .debug_loc     0x0003092e      0x33f icomlib.a(pstmmonreduce.o)
 .debug_loc     0x00030c6d      0x5ca icomlib.a(pstmsqrcomba.o)
 .debug_loc     0x00031237      0x4d3 icomlib.a(pstmmulcomba.o)
 .debug_loc     0x0003170a       0x94 icomlib.a(pubkey.o)
 .debug_loc     0x0003179e      0x962 icomlib.a(rsa.o)
 .debug_loc     0x00032100      0x7f2 icomlib.a(pkcs.o)
 .debug_loc     0x000328f2      0xaf6 icomlib.a(asn1.o)
 .debug_loc     0x000333e8      0x1e2 icomlib.a(base64.o)
 .debug_loc     0x000335ca     0x1dec icomlib.a(x509.o)
 .debug_loc     0x000353b6      0x525 icomlib.a(prf.o)
 .debug_loc     0x000358db      0xd31 icomlib.a(cipherSuite.o)
 .debug_loc     0x0003660c      0x2c1 icomlib.a(hsHash.o)
 .debug_loc     0x000368cd       0xfb icomlib.a(time.o)
 .debug_loc     0x000369c8      0x471 ./thirdPartyLib/libdtlib.a(common_general_)
 .debug_loc     0x00036e39      0xa52 ./thirdPartyLib/libdtlib.a(udp_listen.o)
 .debug_loc     0x0003788b      0xf9d ./thirdPartyLib/libdtlib.a(dt_mqtt.o)
 .debug_loc     0x00038828      0x67a ./thirdPartyLib/libdtlib.a(dt_tcp_serve.o)

.debug_str      0x00000000    0x13c1c
 .debug_str     0x00000000      0x58e ssv6060-main.o
                                0x704 (size before relaxing)
 .debug_str     0x0000058e      0x1c7 icomlib.a(printf.o)
                                0x4c8 (size before relaxing)
 .debug_str     0x00000755      0x60c icomlib.a(boot-hiflying.o)
                                0x87b (size before relaxing)
 .debug_str     0x00000d61      0x2a6 icomlib.a(contiki-main.o)
                                0x921 (size before relaxing)
 .debug_str     0x00001007      0x336 icomlib.a(drv_uart.o)
                                0x544 (size before relaxing)
 .debug_str     0x0000133d      0xd4d icomlib.a(hw_init.o)
                               0x139d (size before relaxing)
 .debug_str     0x0000208a       0x17 icomlib.a(hw_regs_api.o)
                                0x1c2 (size before relaxing)
 .debug_str     0x000020a1      0x154 icomlib.a(ssv_lib.o)
                                0x2f8 (size before relaxing)
 .debug_str     0x000021f5      0x4ae icomlib.a(systemconf.o)
                               0x10a0 (size before relaxing)
 .debug_str     0x000026a3      0x1a9 icomlib.a(wdog_api.o)
                                0x522 (size before relaxing)
 .debug_str     0x0000284c      0x109 icomlib.a(smartSetting.o)
                                0x4fa (size before relaxing)
 .debug_str     0x00002955      0x401 icomlib.a(smartConf.o)
                                0xa29 (size before relaxing)
 .debug_str     0x00002d56      0x14a icomlib.a(bsp.o)
                                0x4d3 (size before relaxing)
 .debug_str     0x00002ea0      0x247 icomlib.a(crypthw.o)
                                0x530 (size before relaxing)
 .debug_str     0x000030e7      0xd67 icomlib.a(dbg-atcmd-api.o)
                               0x1eac (size before relaxing)
 .debug_str     0x00003e4e      0x1af icomlib.a(drv_mac.o)
                                0x364 (size before relaxing)
 .debug_str     0x00003ffd      0xd78 icomlib.a(drv_phy.o)
                               0x11dd (size before relaxing)
 .debug_str     0x00004d75      0x21e icomlib.a(drv_pktbuf.o)
                                0x620 (size before relaxing)
 .debug_str     0x00004f93       0x23 icomlib.a(drv_pktbuf_slow)
                                0x329 (size before relaxing)
 .debug_str     0x00004fb6     0x20bb icomlib.a(ieee80211_mgmt.)
                               0x34c2 (size before relaxing)
 .debug_str     0x00007071       0x49 icomlib.a(ieee80211_rdc.o)
                                0x4c3 (size before relaxing)
 .debug_str     0x000070ba      0x158 icomlib.a(irq.o)
                                0x324 (size before relaxing)
 .debug_str     0x00007212       0x2d icomlib.a(netstack.o)
                                0x239 (size before relaxing)
 .debug_str     0x0000723f      0x19e icomlib.a(powersave.o)
                               0x187d (size before relaxing)
 .debug_str     0x000073dd       0xd1 icomlib.a(rate_control.o)
                                0xc4b (size before relaxing)
 .debug_str     0x000074ae      0xba1 icomlib.a(soft_ap.o)
                               0x29d6 (size before relaxing)
 .debug_str     0x0000804f      0x1dd icomlib.a(ssv6200_rx.o)
                               0x10f2 (size before relaxing)
 .debug_str     0x0000822c      0x201 icomlib.a(ssvradio.o)
                                0xffb (size before relaxing)
 .debug_str     0x0000842d      0x2a1 icomlib.a(wpa.o)
                               0x1c77 (size before relaxing)
 .debug_str     0x000086ce      0x22b icomlib.a(sys_status_api.)
                                0xecc (size before relaxing)
 .debug_str     0x000088f9      0x192 icomlib.a(aes.o)
                                0x34e (size before relaxing)
 .debug_str     0x00008a8b       0x2d icomlib.a(arc4.o)
                                0x1e8 (size before relaxing)
 .debug_str     0x00008ab8       0xfd icomlib.a(wep.o)
                               0x17d7 (size before relaxing)
 .debug_str     0x00008bb5       0x1e icomlib.a(autostart.o)
                                0x303 (size before relaxing)
 .debug_str     0x00008bd3      0x140 icomlib.a(etimer.o)
                                0x4b5 (size before relaxing)
 .debug_str     0x00008d13      0x118 icomlib.a(process.o)
                                0x454 (size before relaxing)
 .debug_str     0x00008e2b       0x1e icomlib.a(random.o)
                                0x1a9 (size before relaxing)
 .debug_str     0x00008e49       0x1b icomlib.a(timer.o)
                                0x1f4 (size before relaxing)
 .debug_str     0x00008e64       0x71 icomlib.a(atcmdlib.o)
                                0x775 (size before relaxing)
 .debug_str     0x00008ed5      0x422 icomlib.a(atcmd_icomm.o)
                               0x181a (size before relaxing)
 .debug_str     0x000092f7       0xa0 icomlib.a(clock.o)
                                0xb99 (size before relaxing)
 .debug_str     0x00009397       0x13 icomlib.a(console.o)
                                0x1f6 (size before relaxing)
 .debug_str     0x000093aa      0x1e1 icomlib.a(drv_flash.o)
                                0x49f (size before relaxing)
 .debug_str     0x0000958b       0x91 icomlib.a(drv_pmu.o)
                                0xc58 (size before relaxing)
 .debug_str     0x0000961c       0x20 icomlib.a(drv_timer.o)
                                0x255 (size before relaxing)
 .debug_str     0x0000963c       0x14 icomlib.a(drv_wdog.o)
                                0x1fc (size before relaxing)
 .debug_str     0x00009650       0x4c icomlib.a(fence.o)
                                0x1f0 (size before relaxing)
 .debug_str     0x0000969c       0xf0 icomlib.a(flash_api.o)
                                0x5de (size before relaxing)
 .debug_str     0x0000978c      0x29e icomlib.a(smartComm.o)
                               0x11b9 (size before relaxing)
 .debug_str     0x00009a2a       0x82 icomlib.a(ssv_lib_slow.o)
                                0x23b (size before relaxing)
 .debug_str     0x00009aac      0x16a icomlib.a(swpwm.o)
                                0x36c (size before relaxing)
 .debug_str     0x00009c16      0x195 icomlib.a(userSmart.o)
                                0xdd6 (size before relaxing)
 .debug_str     0x00009dab       0xd5 icomlib.a(hash_alg.o)
                                0x2be (size before relaxing)
 .debug_str     0x00009e80       0x36 icomlib.a(hmac_md5.o)
                                0x23b (size before relaxing)
 .debug_str     0x00009eb6       0xa6 icomlib.a(hmac_sha1.o)
                                0x2a3 (size before relaxing)
 .debug_str     0x00009f5c       0x97 icomlib.a(ieee80211_mac.o)
                                0xf4d (size before relaxing)
 .debug_str     0x00009ff3      0x136 icomlib.a(ieee80211_net.o)
                                0xf60 (size before relaxing)
 .debug_str     0x0000a129       0x20 icomlib.a(sha1.o)
                                0x240 (size before relaxing)
 .debug_str     0x0000a149      0x149 icomlib.a(ssv6200_tx.o)
                                0xf8f (size before relaxing)
 .debug_str     0x0000a292       0x44 icomlib.a(md5.o)
                                0x239 (size before relaxing)
 .debug_str     0x0000a2d6       0xd2 icomlib.a(shell-ping.o)
                                0x514 (size before relaxing)
 .debug_str     0x0000a3a8       0x22 icomlib.a(drv_fence.o)
                                0x1e2 (size before relaxing)
 .debug_str     0x0000a3ca       0xdf icomlib.a(drv_gpio.o)
                                0x30b (size before relaxing)
 .debug_str     0x0000a4a9       0x4c icomlib.a(gpio_api.o)
                                0x380 (size before relaxing)
 .debug_str     0x0000a4f5       0x38 icomlib.a(drv_mbox.o)
                                0x20e (size before relaxing)
 .debug_str     0x0000a52d       0x4a icomlib.a(EAPOL.o)
                                0xe96 (size before relaxing)
 .debug_str     0x0000a577      0xabf icomapps.a(atcmd_mqtt.o)
                               0x10d2 (size before relaxing)
 .debug_str     0x0000b036      0x7ed icomapps.a(atcmd.o)
                               0x2244 (size before relaxing)
 .debug_str     0x0000b823      0x158 icomapps.a(bsp_info.o)
                                0xdf8 (size before relaxing)
 .debug_str     0x0000b97b      0x3d0 icomapps.a(data_buff.o)
                                0x830 (size before relaxing)
 .debug_str     0x0000bd4b      0x2d3 icomapps.a(hx_sta_conn.o)
                                0xef3 (size before relaxing)
 .debug_str     0x0000c01e       0x19 icomapps.a(iperf_cmd.o)
                                0x400 (size before relaxing)
 .debug_str     0x0000c037      0x101 icomapps.a(key.o)
                                0x70a (size before relaxing)
 .debug_str     0x0000c138      0x244 icomapps.a(MyATCmd.o)
                                0x8be (size before relaxing)
 .debug_str     0x0000c37c      0x50e icomapps.a(MyThread.o)
                               0x1430 (size before relaxing)
 .debug_str     0x0000c88a     0x1522 icomapps.a(ota_api.o)
                               0x1f62 (size before relaxing)
 .debug_str     0x0000ddac      0x272 icomapps.a(socket_app.o)
                               0x115e (size before relaxing)
 .debug_str     0x0000e01e       0xec icomapps.a(soft_ap_init.o)
                                0xdf7 (size before relaxing)
 .debug_str     0x0000e10a       0x62 icomapps.a(UAMisc.o)
                                0x457 (size before relaxing)
 .debug_str     0x0000e16c        0xc icomapps.a(UAVersion.o)
                                0x3ed (size before relaxing)
 .debug_str     0x0000e178      0x248 icomapps.a(wifi_uart_demo.)
                                0xb71 (size before relaxing)
 .debug_str     0x0000e3c0       0xf0 icomapps.a(xmem.o)
                                0x4bc (size before relaxing)
 .debug_str     0x0000e4b0      0x3bc icomapps.a(szcloud_intf.o)
                               0x1104 (size before relaxing)
 .debug_str     0x0000e86c      0x223 icomapps.a(szcloud_uart.o)
                                0x7f6 (size before relaxing)
 .debug_str     0x0000ea8f      0x44e icomapps.a(hx_flash_opt.o)
                                0xb8a (size before relaxing)
 .debug_str     0x0000eedd       0x1d icomapps.a(MyCustSave.o)
                                0x58e (size before relaxing)
 .debug_str     0x0000eefa      0x4bb icomapps.a(net.o)
                                0xbf6 (size before relaxing)
 .debug_str     0x0000f3b5       0x92 icomapps.a(uart.o)
                                0x9af (size before relaxing)
 .debug_str     0x0000f447      0x6e5 contikilib.a(mqtt.o)
                               0x1fb8 (size before relaxing)
 .debug_str     0x0000fb2c      0x244 contikilib.a(ntp_client.o)
                                0x90b (size before relaxing)
 .debug_str     0x0000fd70      0x35a contikilib.a(cfs-coffee.o)
                                0x82f (size before relaxing)
 .debug_str     0x000100ca       0xb2 contikilib.a(dhcp_process.o)
                                0xd84 (size before relaxing)
 .debug_str     0x0001017c      0x1c8 contikilib.a(dhcps.o)
                                0x992 (size before relaxing)
 .debug_str     0x00010344       0x86 contikilib.a(list.o)
                                0x193 (size before relaxing)
 .debug_str     0x000103ca      0x20b contikilib.a(resolv.o)
                                0x70a (size before relaxing)
 .debug_str     0x000105d5       0x90 contikilib.a(simple-udp.o)
                                0x5d5 (size before relaxing)
 .debug_str     0x00010665      0x177 contikilib.a(socket_driver.o)
                                0x86d (size before relaxing)
 .debug_str     0x000107dc      0x161 contikilib.a(tcp-socket.o)
                                0x86a (size before relaxing)
 .debug_str     0x0001093d      0x1b7 contikilib.a(tcpip.o)
                                0xa2f (size before relaxing)
 .debug_str     0x00010af4      0x16c contikilib.a(uip_arp.o)
                                0x6d9 (size before relaxing)
 .debug_str     0x00010c60      0x1d8 contikilib.a(uip.o)
                               0x110a (size before relaxing)
 .debug_str     0x00010e38       0x13 contikilib.a(uiplib.o)
                                0x2c8 (size before relaxing)
 .debug_str     0x00010e4b       0x43 contikilib.a(uip-udp-packet.)
                                0x446 (size before relaxing)
 .debug_str     0x00010e8e      0x19f contikilib.a(dhcpc.o)
                               0x1786 (size before relaxing)
 .debug_str     0x0001102d       0x6f icomlib.a(ctimer.o)
                                0x43b (size before relaxing)
 .debug_str     0x0001109c       0x72 icomlib.a(pwm_api.o)
                                0x21d (size before relaxing)
 .debug_str     0x0001110e       0x43 icomlib.a(serial_api.o)
                                0x422 (size before relaxing)
 .debug_str     0x00011151      0x3df icomlib.a(ssl_api.o)
                               0x1332 (size before relaxing)
 .debug_str     0x00011530       0xd7 icomlib.a(osdep.o)
                                0x3fe (size before relaxing)
 .debug_str     0x00011607      0x120 icomlib.a(tls.o)
                                0xd2b (size before relaxing)
 .debug_str     0x00011727      0x439 icomlib.a(matrixssl.o)
                               0x113f (size before relaxing)
 .debug_str     0x00011b60      0x2e2 icomlib.a(matrixsslApi.o)
                               0x1059 (size before relaxing)
 .debug_str     0x00011e42      0x1d5 icomlib.a(sslDecode.o)
                                0xf0c (size before relaxing)
 .debug_str     0x00012017      0x3cf icomlib.a(sslEncode.o)
                               0x115d (size before relaxing)
 .debug_str     0x000123e6       0x1a icomlib.a(drv_pwm.o)
                                0x1f8 (size before relaxing)
 .debug_str     0x00012400       0xa0 icomlib.a(corelib.o)
                                0x306 (size before relaxing)
 .debug_str     0x000124a0       0x77 icomlib.a(prng.o)
                                0x22f (size before relaxing)
 .debug_str     0x00012517       0x3b icomlib.a(sha1ssl.o)
                                0x262 (size before relaxing)
 .debug_str     0x00012552       0x30 icomlib.a(sha256.o)
                                0x269 (size before relaxing)
 .debug_str     0x00012582       0x71 icomlib.a(hmac.o)
                                0x384 (size before relaxing)
 .debug_str     0x000125f3      0x37c icomlib.a(pstm.o)
                                0x5bb (size before relaxing)
 .debug_str     0x0001296f       0x1f icomlib.a(pstmmonreduce.o)
                                0x24b (size before relaxing)
 .debug_str     0x0001298e       0x3e icomlib.a(pstmsqrcomba.o)
                                0x23b (size before relaxing)
 .debug_str     0x000129cc       0x2c icomlib.a(pstmmulcomba.o)
                                0x23b (size before relaxing)
 .debug_str     0x000129f8       0x1f icomlib.a(pubkey.o)
                                0x2cf (size before relaxing)
 .debug_str     0x00012a17      0x1e6 icomlib.a(rsa.o)
                                0x53a (size before relaxing)
 .debug_str     0x00012bfd       0xbe icomlib.a(pkcs.o)
                                0x3e8 (size before relaxing)
 .debug_str     0x00012cbb      0x111 icomlib.a(asn1.o)
                                0x4c6 (size before relaxing)
 .debug_str     0x00012dcc       0x13 icomlib.a(base64.o)
                                0x1a4 (size before relaxing)
 .debug_str     0x00012ddf      0x40a icomlib.a(x509.o)
                                0xe9a (size before relaxing)
 .debug_str     0x000131e9       0x5e icomlib.a(prf.o)
                                0x36f (size before relaxing)
 .debug_str     0x00013247      0x13c icomlib.a(cipherSuite.o)
                                0xdec (size before relaxing)
 .debug_str     0x00013383       0x48 icomlib.a(hsHash.o)
                                0xc5d (size before relaxing)
 .debug_str     0x000133cb       0x40 icomlib.a(time.o)
                                0x218 (size before relaxing)
 .debug_str     0x0001340b      0x275 ./thirdPartyLib/libdtlib.a(common_general_)
                                0xc41 (size before relaxing)
 .debug_str     0x00013680      0x1df ./thirdPartyLib/libdtlib.a(udp_listen.o)
                                0xdf2 (size before relaxing)
 .debug_str     0x0001385f      0x334 ./thirdPartyLib/libdtlib.a(dt_mqtt.o)
                               0x1275 (size before relaxing)
 .debug_str     0x00013b93       0x89 ./thirdPartyLib/libdtlib.a(dt_tcp_serve.o)
                                0xd85 (size before relaxing)

.comment        0x00000000       0x70
 .comment       0x00000000       0x70 ssv6060-main.o
                                 0x71 (size before relaxing)
 .comment       0x00000000       0x71 icomlib.a(printf.o)
 .comment       0x00000000       0x71 icomlib.a(boot-hiflying.o)
 .comment       0x00000000       0x71 icomlib.a(contiki-main.o)
 .comment       0x00000000       0x71 icomlib.a(drv_uart.o)
 .comment       0x00000000       0x71 icomlib.a(hw_init.o)
 .comment       0x00000000       0x71 icomlib.a(hw_regs_api.o)
 .comment       0x00000000       0x71 icomlib.a(ssv_lib.o)
 .comment       0x00000000       0x71 icomlib.a(systemconf.o)
 .comment       0x00000000       0x71 icomlib.a(wdog_api.o)
 .comment       0x00000000       0x71 icomlib.a(smartSetting.o)
 .comment       0x00000000       0x71 icomlib.a(smartConf.o)
 .comment       0x00000000       0x71 icomlib.a(bsp.o)
 .comment       0x00000000       0x71 icomlib.a(crypthw.o)
 .comment       0x00000000       0x71 icomlib.a(dbg-atcmd-api.o)
 .comment       0x00000000       0x71 icomlib.a(drv_mac.o)
 .comment       0x00000000       0x71 icomlib.a(drv_phy.o)
 .comment       0x00000000       0x71 icomlib.a(drv_pktbuf.o)
 .comment       0x00000000       0x71 icomlib.a(drv_pktbuf_slow)
 .comment       0x00000000       0x71 icomlib.a(ieee80211_mgmt.)
 .comment       0x00000000       0x71 icomlib.a(ieee80211_rdc.o)
 .comment       0x00000000       0x71 icomlib.a(irq.o)
 .comment       0x00000000       0x71 icomlib.a(netstack.o)
 .comment       0x00000000       0x71 icomlib.a(powersave.o)
 .comment       0x00000000       0x71 icomlib.a(rate_control.o)
 .comment       0x00000000       0x71 icomlib.a(soft_ap.o)
 .comment       0x00000000       0x71 icomlib.a(ssv6200_rx.o)
 .comment       0x00000000       0x71 icomlib.a(ssvradio.o)
 .comment       0x00000000       0x71 icomlib.a(wpa.o)
 .comment       0x00000000       0x71 icomlib.a(sys_status_api.)
 .comment       0x00000000       0x71 icomlib.a(aes.o)
 .comment       0x00000000       0x71 icomlib.a(arc4.o)
 .comment       0x00000000       0x71 icomlib.a(wep.o)
 .comment       0x00000000       0x71 icomlib.a(autostart.o)
 .comment       0x00000000       0x71 icomlib.a(etimer.o)
 .comment       0x00000000       0x71 icomlib.a(process.o)
 .comment       0x00000000       0x71 icomlib.a(random.o)
 .comment       0x00000000       0x71 icomlib.a(timer.o)
 .comment       0x00000000       0x71 icomlib.a(atcmdlib.o)
 .comment       0x00000000       0x71 icomlib.a(atcmd_icomm.o)
 .comment       0x00000000       0x71 icomlib.a(clock.o)
 .comment       0x00000000       0x71 icomlib.a(console.o)
 .comment       0x00000000       0x71 icomlib.a(drv_flash.o)
 .comment       0x00000000       0x71 icomlib.a(drv_pmu.o)
 .comment       0x00000000       0x71 icomlib.a(drv_timer.o)
 .comment       0x00000000       0x71 icomlib.a(drv_wdog.o)
 .comment       0x00000000       0x71 icomlib.a(fence.o)
 .comment       0x00000000       0x71 icomlib.a(flash_api.o)
 .comment       0x00000000       0x71 icomlib.a(smartComm.o)
 .comment       0x00000000       0x71 icomlib.a(ssv_lib_slow.o)
 .comment       0x00000000       0x71 icomlib.a(swpwm.o)
 .comment       0x00000000       0x71 icomlib.a(userSmart.o)
 .comment       0x00000000       0x71 icomlib.a(hash_alg.o)
 .comment       0x00000000       0x71 icomlib.a(hmac_md5.o)
 .comment       0x00000000       0x71 icomlib.a(hmac_sha1.o)
 .comment       0x00000000       0x71 icomlib.a(ieee80211_mac.o)
 .comment       0x00000000       0x71 icomlib.a(ieee80211_net.o)
 .comment       0x00000000       0x71 icomlib.a(sha1.o)
 .comment       0x00000000       0x71 icomlib.a(ssv6200_tx.o)
 .comment       0x00000000       0x71 icomlib.a(md5.o)
 .comment       0x00000000       0x71 icomlib.a(shell-ping.o)
 .comment       0x00000000       0x71 icomlib.a(drv_fence.o)
 .comment       0x00000000       0x71 icomlib.a(drv_gpio.o)
 .comment       0x00000000       0x71 icomlib.a(gpio_api.o)
 .comment       0x00000000       0x71 icomlib.a(drv_mbox.o)
 .comment       0x00000000       0x71 icomlib.a(EAPOL.o)
 .comment       0x00000000       0x71 icomapps.a(atcmd_mqtt.o)
 .comment       0x00000000       0x71 icomapps.a(atcmd.o)
 .comment       0x00000000       0x71 icomapps.a(bsp_info.o)
 .comment       0x00000000       0x71 icomapps.a(data_buff.o)
 .comment       0x00000000       0x71 icomapps.a(hx_sta_conn.o)
 .comment       0x00000000       0x71 icomapps.a(iperf_cmd.o)
 .comment       0x00000000       0x71 icomapps.a(key.o)
 .comment       0x00000000       0x71 icomapps.a(MyATCmd.o)
 .comment       0x00000000       0x71 icomapps.a(MyThread.o)
 .comment       0x00000000       0x71 icomapps.a(ota_api.o)
 .comment       0x00000000       0x71 icomapps.a(socket_app.o)
 .comment       0x00000000       0x71 icomapps.a(soft_ap_init.o)
 .comment       0x00000000       0x71 icomapps.a(UAMisc.o)
 .comment       0x00000000       0x71 icomapps.a(UAVersion.o)
 .comment       0x00000000       0x71 icomapps.a(wifi_uart_demo.)
 .comment       0x00000000       0x71 icomapps.a(xmem.o)
 .comment       0x00000000       0x71 icomapps.a(szcloud_intf.o)
 .comment       0x00000000       0x71 icomapps.a(szcloud_uart.o)
 .comment       0x00000000       0x71 icomapps.a(hx_flash_opt.o)
 .comment       0x00000000       0x71 icomapps.a(MyCustSave.o)
 .comment       0x00000000       0x71 icomapps.a(net.o)
 .comment       0x00000000       0x71 icomapps.a(uart.o)
 .comment       0x00000000       0x71 contikilib.a(mqtt.o)
 .comment       0x00000000       0x71 contikilib.a(ntp_client.o)
 .comment       0x00000000       0x71 contikilib.a(cfs-coffee.o)
 .comment       0x00000000       0x71 contikilib.a(dhcp_process.o)
 .comment       0x00000000       0x71 contikilib.a(dhcps.o)
 .comment       0x00000000       0x71 contikilib.a(list.o)
 .comment       0x00000000       0x71 contikilib.a(resolv.o)
 .comment       0x00000000       0x71 contikilib.a(simple-udp.o)
 .comment       0x00000000       0x71 contikilib.a(socket_driver.o)
 .comment       0x00000000       0x71 contikilib.a(tcp-socket.o)
 .comment       0x00000000       0x71 contikilib.a(tcpip.o)
 .comment       0x00000000       0x71 contikilib.a(uip_arp.o)
 .comment       0x00000000       0x71 contikilib.a(uip.o)
 .comment       0x00000000       0x71 contikilib.a(uiplib.o)
 .comment       0x00000000       0x71 contikilib.a(uip-udp-packet.)
 .comment       0x00000000       0x71 contikilib.a(dhcpc.o)
 .comment       0x00000000       0x71 icomlib.a(ctimer.o)
 .comment       0x00000000       0x71 icomlib.a(pwm_api.o)
 .comment       0x00000000       0x71 icomlib.a(serial_api.o)
 .comment       0x00000000       0x71 icomlib.a(ssl_api.o)
 .comment       0x00000000       0x71 icomlib.a(osdep.o)
 .comment       0x00000000       0x71 icomlib.a(tls.o)
 .comment       0x00000000       0x71 icomlib.a(matrixssl.o)
 .comment       0x00000000       0x71 icomlib.a(matrixsslApi.o)
 .comment       0x00000000       0x71 icomlib.a(sslDecode.o)
 .comment       0x00000000       0x71 icomlib.a(sslEncode.o)
 .comment       0x00000000       0x71 icomlib.a(drv_pwm.o)
 .comment       0x00000000       0x71 icomlib.a(corelib.o)
 .comment       0x00000000       0x71 icomlib.a(prng.o)
 .comment       0x00000000       0x71 icomlib.a(sha1ssl.o)
 .comment       0x00000000       0x71 icomlib.a(sha256.o)
 .comment       0x00000000       0x71 icomlib.a(hmac.o)
 .comment       0x00000000       0x71 icomlib.a(pstm.o)
 .comment       0x00000000       0x71 icomlib.a(pstmmonreduce.o)
 .comment       0x00000000       0x71 icomlib.a(pstmsqrcomba.o)
 .comment       0x00000000       0x71 icomlib.a(pstmmulcomba.o)
 .comment       0x00000000       0x71 icomlib.a(pubkey.o)
 .comment       0x00000000       0x71 icomlib.a(rsa.o)
 .comment       0x00000000       0x71 icomlib.a(pkcs.o)
 .comment       0x00000000       0x71 icomlib.a(asn1.o)
 .comment       0x00000000       0x71 icomlib.a(base64.o)
 .comment       0x00000000       0x71 icomlib.a(x509.o)
 .comment       0x00000000       0x71 icomlib.a(prf.o)
 .comment       0x00000000       0x71 icomlib.a(cipherSuite.o)
 .comment       0x00000000       0x71 icomlib.a(hsHash.o)
 .comment       0x00000000       0x71 icomlib.a(time.o)
 .comment       0x00000000       0x71 ./thirdPartyLib/libdtlib.a(common_general_)
 .comment       0x00000000       0x71 ./thirdPartyLib/libdtlib.a(udp_listen.o)
 .comment       0x00000000       0x71 ./thirdPartyLib/libdtlib.a(dt_mqtt.o)
 .comment       0x00000000       0x71 ./thirdPartyLib/libdtlib.a(dt_tcp_serve.o)

.debug_frame    0x00000000     0xc468
 .debug_frame   0x00000000       0x48 ssv6060-main.o
 .debug_frame   0x00000048      0x184 icomlib.a(printf.o)
 .debug_frame   0x000001cc      0x244 icomlib.a(boot-hiflying.o)
 .debug_frame   0x00000410       0xc0 icomlib.a(contiki-main.o)
 .debug_frame   0x000004d0      0x138 icomlib.a(drv_uart.o)
 .debug_frame   0x00000608      0x108 icomlib.a(hw_init.o)
 .debug_frame   0x00000710       0x40 icomlib.a(hw_regs_api.o)
 .debug_frame   0x00000750      0x10c icomlib.a(ssv_lib.o)
 .debug_frame   0x0000085c      0x184 icomlib.a(systemconf.o)
 .debug_frame   0x000009e0       0x94 icomlib.a(wdog_api.o)
 .debug_frame   0x00000a74       0x74 icomlib.a(smartSetting.o)
 .debug_frame   0x00000ae8       0xc0 icomlib.a(smartConf.o)
 .debug_frame   0x00000ba8       0xbc icomlib.a(bsp.o)
 .debug_frame   0x00000c64       0xe0 icomlib.a(crypthw.o)
 .debug_frame   0x00000d44      0xa24 icomlib.a(dbg-atcmd-api.o)
 .debug_frame   0x00001768      0x358 icomlib.a(drv_mac.o)
 .debug_frame   0x00001ac0      0x68c icomlib.a(drv_phy.o)
 .debug_frame   0x0000214c      0x138 icomlib.a(drv_pktbuf.o)
 .debug_frame   0x00002284       0x30 icomlib.a(drv_pktbuf_slow)
 .debug_frame   0x000022b4      0x5dc icomlib.a(ieee80211_mgmt.)
 .debug_frame   0x00002890       0xa0 icomlib.a(ieee80211_rdc.o)
 .debug_frame   0x00002930       0xe8 icomlib.a(irq.o)
 .debug_frame   0x00002a18       0x28 icomlib.a(netstack.o)
 .debug_frame   0x00002a40      0x110 icomlib.a(powersave.o)
 .debug_frame   0x00002b50       0xa4 icomlib.a(rate_control.o)
 .debug_frame   0x00002bf4      0x690 icomlib.a(soft_ap.o)
 .debug_frame   0x00003284      0x124 icomlib.a(ssv6200_rx.o)
 .debug_frame   0x000033a8      0x114 icomlib.a(ssvradio.o)
 .debug_frame   0x000034bc      0x310 icomlib.a(wpa.o)
 .debug_frame   0x000037cc      0x224 icomlib.a(sys_status_api.)
 .debug_frame   0x000039f0      0x1e4 icomlib.a(aes.o)
 .debug_frame   0x00003bd4       0x78 icomlib.a(arc4.o)
 .debug_frame   0x00003c4c      0x1c4 icomlib.a(wep.o)
 .debug_frame   0x00003e10       0x40 icomlib.a(autostart.o)
 .debug_frame   0x00003e50      0x160 icomlib.a(etimer.o)
 .debug_frame   0x00003fb0      0x188 icomlib.a(process.o)
 .debug_frame   0x00004138       0x38 icomlib.a(random.o)
 .debug_frame   0x00004170       0x90 icomlib.a(timer.o)
 .debug_frame   0x00004200       0x88 icomlib.a(atcmdlib.o)
 .debug_frame   0x00004288      0x4a4 icomlib.a(atcmd_icomm.o)
 .debug_frame   0x0000472c       0x9c icomlib.a(clock.o)
 .debug_frame   0x000047c8       0x28 icomlib.a(console.o)
 .debug_frame   0x000047f0      0x13c icomlib.a(drv_flash.o)
 .debug_frame   0x0000492c       0x94 icomlib.a(drv_pmu.o)
 .debug_frame   0x000049c0       0x40 icomlib.a(drv_timer.o)
 .debug_frame   0x00004a00       0x60 icomlib.a(drv_wdog.o)
 .debug_frame   0x00004a60       0x38 icomlib.a(fence.o)
 .debug_frame   0x00004a98      0x150 icomlib.a(flash_api.o)
 .debug_frame   0x00004be8      0x244 icomlib.a(smartComm.o)
 .debug_frame   0x00004e2c       0xd4 icomlib.a(ssv_lib_slow.o)
 .debug_frame   0x00004f00       0xb8 icomlib.a(swpwm.o)
 .debug_frame   0x00004fb8      0x164 icomlib.a(userSmart.o)
 .debug_frame   0x0000511c       0xd0 icomlib.a(hash_alg.o)
 .debug_frame   0x000051ec       0x54 icomlib.a(hmac_md5.o)
 .debug_frame   0x00005240       0x58 icomlib.a(hmac_sha1.o)
 .debug_frame   0x00005298      0x170 icomlib.a(ieee80211_mac.o)
 .debug_frame   0x00005408       0x88 icomlib.a(ieee80211_net.o)
 .debug_frame   0x00005490       0x6c icomlib.a(sha1.o)
 .debug_frame   0x000054fc       0x78 icomlib.a(ssv6200_tx.o)
 .debug_frame   0x00005574       0x98 icomlib.a(md5.o)
 .debug_frame   0x0000560c       0x6c icomlib.a(shell-ping.o)
 .debug_frame   0x00005678       0x30 icomlib.a(drv_fence.o)
 .debug_frame   0x000056a8       0xd4 icomlib.a(drv_gpio.o)
 .debug_frame   0x0000577c       0x70 icomlib.a(gpio_api.o)
 .debug_frame   0x000057ec       0x30 icomlib.a(drv_mbox.o)
 .debug_frame   0x0000581c       0x68 icomlib.a(EAPOL.o)
 .debug_frame   0x00005884      0x154 icomapps.a(atcmd_mqtt.o)
 .debug_frame   0x000059d8      0x7a0 icomapps.a(atcmd.o)
 .debug_frame   0x00006178       0xa8 icomapps.a(bsp_info.o)
 .debug_frame   0x00006220      0x3d0 icomapps.a(data_buff.o)
 .debug_frame   0x000065f0      0x178 icomapps.a(hx_sta_conn.o)
 .debug_frame   0x00006768       0x20 icomapps.a(iperf_cmd.o)
 .debug_frame   0x00006788       0x7c icomapps.a(key.o)
 .debug_frame   0x00006804      0x170 icomapps.a(MyATCmd.o)
 .debug_frame   0x00006974      0x274 icomapps.a(MyThread.o)
 .debug_frame   0x00006be8      0x314 icomapps.a(ota_api.o)
 .debug_frame   0x00006efc      0x1a4 icomapps.a(socket_app.o)
 .debug_frame   0x000070a0       0xd8 icomapps.a(soft_ap_init.o)
 .debug_frame   0x00007178       0x94 icomapps.a(UAMisc.o)
 .debug_frame   0x0000720c       0x98 icomapps.a(wifi_uart_demo.)
 .debug_frame   0x000072a4       0xe4 icomapps.a(xmem.o)
 .debug_frame   0x00007388      0x12c icomapps.a(szcloud_intf.o)
 .debug_frame   0x000074b4      0x128 icomapps.a(szcloud_uart.o)
 .debug_frame   0x000075dc      0x32c icomapps.a(hx_flash_opt.o)
 .debug_frame   0x00007908       0x68 icomapps.a(MyCustSave.o)
 .debug_frame   0x00007970      0x264 icomapps.a(net.o)
 .debug_frame   0x00007bd4      0x124 icomapps.a(uart.o)
 .debug_frame   0x00007cf8      0x28c contikilib.a(mqtt.o)
 .debug_frame   0x00007f84      0x100 contikilib.a(ntp_client.o)
 .debug_frame   0x00008084      0x310 contikilib.a(cfs-coffee.o)
 .debug_frame   0x00008394       0x8c contikilib.a(dhcp_process.o)
 .debug_frame   0x00008420      0x188 contikilib.a(dhcps.o)
 .debug_frame   0x000085a8       0xe8 contikilib.a(list.o)
 .debug_frame   0x00008690       0xc4 contikilib.a(resolv.o)
 .debug_frame   0x00008754       0xac contikilib.a(simple-udp.o)
 .debug_frame   0x00008800      0x1d4 contikilib.a(socket_driver.o)
 .debug_frame   0x000089d4      0x174 contikilib.a(tcp-socket.o)
 .debug_frame   0x00008b48      0x200 contikilib.a(tcpip.o)
 .debug_frame   0x00008d48      0x1a0 contikilib.a(uip_arp.o)
 .debug_frame   0x00008ee8      0x264 contikilib.a(uip.o)
 .debug_frame   0x0000914c       0x34 contikilib.a(uiplib.o)
 .debug_frame   0x00009180       0x4c contikilib.a(uip-udp-packet.)
 .debug_frame   0x000091cc      0x148 contikilib.a(dhcpc.o)
 .debug_frame   0x00009314       0xd4 icomlib.a(ctimer.o)
 .debug_frame   0x000093e8       0x58 icomlib.a(pwm_api.o)
 .debug_frame   0x00009440       0x80 icomlib.a(serial_api.o)
 .debug_frame   0x000094c0      0x1ec icomlib.a(ssl_api.o)
 .debug_frame   0x000096ac      0x11c icomlib.a(osdep.o)
 .debug_frame   0x000097c8      0x120 icomlib.a(tls.o)
 .debug_frame   0x000098e8      0x240 icomlib.a(matrixssl.o)
 .debug_frame   0x00009b28      0x208 icomlib.a(matrixsslApi.o)
 .debug_frame   0x00009d30       0x3c icomlib.a(sslDecode.o)
 .debug_frame   0x00009d6c      0x248 icomlib.a(sslEncode.o)
 .debug_frame   0x00009fb4       0x70 icomlib.a(drv_pwm.o)
 .debug_frame   0x0000a024      0x128 icomlib.a(corelib.o)
 .debug_frame   0x0000a14c       0x68 icomlib.a(prng.o)
 .debug_frame   0x0000a1b4       0x90 icomlib.a(sha1ssl.o)
 .debug_frame   0x0000a244       0x8c icomlib.a(sha256.o)
 .debug_frame   0x0000a2d0      0x1a8 icomlib.a(hmac.o)
 .debug_frame   0x0000a478      0x4bc icomlib.a(pstm.o)
 .debug_frame   0x0000a934       0x38 icomlib.a(pstmmonreduce.o)
 .debug_frame   0x0000a96c       0x38 icomlib.a(pstmsqrcomba.o)
 .debug_frame   0x0000a9a4       0x38 icomlib.a(pstmmulcomba.o)
 .debug_frame   0x0000a9dc       0x78 icomlib.a(pubkey.o)
 .debug_frame   0x0000aa54      0x130 icomlib.a(rsa.o)
 .debug_frame   0x0000ab84      0x100 icomlib.a(pkcs.o)
 .debug_frame   0x0000ac84      0x194 icomlib.a(asn1.o)
 .debug_frame   0x0000ae18       0x34 icomlib.a(base64.o)
 .debug_frame   0x0000ae4c      0x230 icomlib.a(x509.o)
 .debug_frame   0x0000b07c       0x68 icomlib.a(prf.o)
 .debug_frame   0x0000b0e4      0x210 icomlib.a(cipherSuite.o)
 .debug_frame   0x0000b2f4       0x78 icomlib.a(hsHash.o)
 .debug_frame   0x0000b36c       0x4c icomlib.a(time.o)
 .debug_frame   0x0000b3b8      0x120 ./thirdPartyLib/libdtlib.a(common_general_)
 .debug_frame   0x0000b4d8      0x178 ./thirdPartyLib/libdtlib.a(udp_listen.o)
 .debug_frame   0x0000b650      0x138 ./thirdPartyLib/libdtlib.a(dt_mqtt.o)
 .debug_frame   0x0000b788       0x78 ./thirdPartyLib/libdtlib.a(dt_tcp_serve.o)
 .debug_frame   0x0000b800       0x20 /usr/bin/../lib/gcc/arm-none-eabi/4.8.4/libgcc.a(_udivsi3.o)
 .debug_frame   0x0000b820       0x20 /usr/bin/../lib/gcc/arm-none-eabi/4.8.4/libgcc.a(_divsi3.o)
 .debug_frame   0x0000b840       0x58 /usr/bin/../lib/gcc/arm-none-eabi/4.8.4/libgcc.a(bpabi.o)
 .debug_frame   0x0000b898       0x38 /usr/bin/../lib/gcc/arm-none-eabi/4.8.4/libgcc.a(_divdi3.o)
 .debug_frame   0x0000b8d0       0x38 /usr/bin/../lib/gcc/arm-none-eabi/4.8.4/libgcc.a(_udivdi3.o)
 .debug_frame   0x0000b908       0x40 /usr/bin/../lib/gcc/arm-none-eabi/4.8.4/../../../../arm-none-eabi/lib/libg_s.a(lib_a-atoi.o)
 .debug_frame   0x0000b948       0x20 /usr/bin/../lib/gcc/arm-none-eabi/4.8.4/../../../../arm-none-eabi/lib/libg_s.a(lib_a-errno.o)
 .debug_frame   0x0000b968       0x40 /usr/bin/../lib/gcc/arm-none-eabi/4.8.4/../../../../arm-none-eabi/lib/libg_s.a(lib_a-malloc.o)
 .debug_frame   0x0000b9a8       0x28 /usr/bin/../lib/gcc/arm-none-eabi/4.8.4/../../../../arm-none-eabi/lib/libg_s.a(lib_a-memmove.o)
 .debug_frame   0x0000b9d0       0x84 /usr/bin/../lib/gcc/arm-none-eabi/4.8.4/../../../../arm-none-eabi/lib/libg_s.a(lib_a-mstats.o)
 .debug_frame   0x0000ba54       0x28 /usr/bin/../lib/gcc/arm-none-eabi/4.8.4/../../../../arm-none-eabi/lib/libg_s.a(lib_a-nano-freer.o)
 .debug_frame   0x0000ba7c       0x2c /usr/bin/../lib/gcc/arm-none-eabi/4.8.4/../../../../arm-none-eabi/lib/libg_s.a(lib_a-nano-mallinfor.o)
 .debug_frame   0x0000baa8       0x2c /usr/bin/../lib/gcc/arm-none-eabi/4.8.4/../../../../arm-none-eabi/lib/libg_s.a(lib_a-nano-mallocr.o)
 .debug_frame   0x0000bad4       0x20 /usr/bin/../lib/gcc/arm-none-eabi/4.8.4/../../../../arm-none-eabi/lib/libg_s.a(lib_a-nano-malloptr.o)
 .debug_frame   0x0000baf4       0x2c /usr/bin/../lib/gcc/arm-none-eabi/4.8.4/../../../../arm-none-eabi/lib/libg_s.a(lib_a-nano-mallstatsr.o)
 .debug_frame   0x0000bb20       0x44 /usr/bin/../lib/gcc/arm-none-eabi/4.8.4/../../../../arm-none-eabi/lib/libg_s.a(lib_a-rand.o)
 .debug_frame   0x0000bb64       0x28 /usr/bin/../lib/gcc/arm-none-eabi/4.8.4/../../../../arm-none-eabi/lib/libg_s.a(lib_a-realloc.o)
 .debug_frame   0x0000bb8c       0x2c /usr/bin/../lib/gcc/arm-none-eabi/4.8.4/../../../../arm-none-eabi/lib/libg_s.a(lib_a-sbrkr.o)
 .debug_frame   0x0000bbb8       0x28 /usr/bin/../lib/gcc/arm-none-eabi/4.8.4/../../../../arm-none-eabi/lib/libg_s.a(lib_a-strcasecmp.o)
 .debug_frame   0x0000bbe0       0x20 /usr/bin/../lib/gcc/arm-none-eabi/4.8.4/../../../../arm-none-eabi/lib/libg_s.a(lib_a-strchr.o)
 .debug_frame   0x0000bc00       0x20 /usr/bin/../lib/gcc/arm-none-eabi/4.8.4/../../../../arm-none-eabi/lib/libg_s.a(lib_a-strcpy.o)
 .debug_frame   0x0000bc20       0x28 /usr/bin/../lib/gcc/arm-none-eabi/4.8.4/../../../../arm-none-eabi/lib/libg_s.a(lib_a-strncmp.o)
 .debug_frame   0x0000bc48       0x2c /usr/bin/../lib/gcc/arm-none-eabi/4.8.4/../../../../arm-none-eabi/lib/libg_s.a(lib_a-strrchr.o)
 .debug_frame   0x0000bc74       0x28 /usr/bin/../lib/gcc/arm-none-eabi/4.8.4/../../../../arm-none-eabi/lib/libg_s.a(lib_a-strstr.o)
 .debug_frame   0x0000bc9c       0x54 /usr/bin/../lib/gcc/arm-none-eabi/4.8.4/../../../../arm-none-eabi/lib/libg_s.a(lib_a-strtol.o)
 .debug_frame   0x0000bcf0       0x54 /usr/bin/../lib/gcc/arm-none-eabi/4.8.4/../../../../arm-none-eabi/lib/libg_s.a(lib_a-strtoul.o)
 .debug_frame   0x0000bd44      0x13c /usr/bin/../lib/gcc/arm-none-eabi/4.8.4/../../../../arm-none-eabi/lib/libg_s.a(lib_a-findfp.o)
 .debug_frame   0x0000be80       0x58 /usr/bin/../lib/gcc/arm-none-eabi/4.8.4/../../../../arm-none-eabi/lib/libg_s.a(lib_a-fprintf.o)
 .debug_frame   0x0000bed8       0x54 /usr/bin/../lib/gcc/arm-none-eabi/4.8.4/../../../../arm-none-eabi/lib/libg_s.a(lib_a-fwalk.o)
 .debug_frame   0x0000bf2c       0x30 /usr/bin/../lib/gcc/arm-none-eabi/4.8.4/../../../../arm-none-eabi/lib/libg_s.a(lib_a-nano-reallocr.o)
 .debug_frame   0x0000bf5c       0x48 /usr/bin/../lib/gcc/arm-none-eabi/4.8.4/../../../../arm-none-eabi/lib/libg_s.a(lib_a-reent.o)
 .debug_frame   0x0000bfa4       0x88 /usr/bin/../lib/gcc/arm-none-eabi/4.8.4/../../../../arm-none-eabi/lib/libg_s.a(lib_a-stdio.o)
 .debug_frame   0x0000c02c       0xa4 /usr/bin/../lib/gcc/arm-none-eabi/4.8.4/../../../../arm-none-eabi/lib/libg_s.a(lib_a-vfprintf.o)
 .debug_frame   0x0000c0d0       0x5c /usr/bin/../lib/gcc/arm-none-eabi/4.8.4/../../../../arm-none-eabi/lib/libg_s.a(lib_a-vfprintf_i.o)
 .debug_frame   0x0000c12c       0x3c /usr/bin/../lib/gcc/arm-none-eabi/4.8.4/../../../../arm-none-eabi/lib/libg_s.a(lib_a-wbuf.o)
 .debug_frame   0x0000c168       0x2c /usr/bin/../lib/gcc/arm-none-eabi/4.8.4/../../../../arm-none-eabi/lib/libg_s.a(lib_a-writer.o)
 .debug_frame   0x0000c194       0x2c /usr/bin/../lib/gcc/arm-none-eabi/4.8.4/../../../../arm-none-eabi/lib/libg_s.a(lib_a-wsetup.o)
 .debug_frame   0x0000c1c0       0x2c /usr/bin/../lib/gcc/arm-none-eabi/4.8.4/../../../../arm-none-eabi/lib/libg_s.a(lib_a-closer.o)
 .debug_frame   0x0000c1ec       0x64 /usr/bin/../lib/gcc/arm-none-eabi/4.8.4/../../../../arm-none-eabi/lib/libg_s.a(lib_a-fflush.o)
 .debug_frame   0x0000c250       0x38 /usr/bin/../lib/gcc/arm-none-eabi/4.8.4/../../../../arm-none-eabi/lib/libg_s.a(lib_a-fvwrite.o)
 .debug_frame   0x0000c288       0x2c /usr/bin/../lib/gcc/arm-none-eabi/4.8.4/../../../../arm-none-eabi/lib/libg_s.a(lib_a-lseekr.o)
 .debug_frame   0x0000c2b4       0x30 /usr/bin/../lib/gcc/arm-none-eabi/4.8.4/../../../../arm-none-eabi/lib/libg_s.a(lib_a-makebuf.o)
 .debug_frame   0x0000c2e4       0x20 /usr/bin/../lib/gcc/arm-none-eabi/4.8.4/../../../../arm-none-eabi/lib/libg_s.a(lib_a-memchr-stub.o)
 .debug_frame   0x0000c304       0x20 /usr/bin/../lib/gcc/arm-none-eabi/4.8.4/../../../../arm-none-eabi/lib/libg_s.a(lib_a-nano-msizer.o)
 .debug_frame   0x0000c324       0x2c /usr/bin/../lib/gcc/arm-none-eabi/4.8.4/../../../../arm-none-eabi/lib/libg_s.a(lib_a-readr.o)
 .debug_frame   0x0000c350       0x2c /usr/bin/../lib/gcc/arm-none-eabi/4.8.4/../../../../arm-none-eabi/lib/libg_s.a(lib_a-fstatr.o)
 .debug_frame   0x0000c37c       0x2c /usr/bin/../lib/gcc/arm-none-eabi/4.8.4/../../../../arm-none-eabi/lib/libg_s.a(lib_a-isattyr.o)
 .debug_frame   0x0000c3a8       0x20 /usr/bin/../lib/gcc/arm-none-eabi/4.8.4/../../../../arm-none-eabi/lib/libnosys.a(close.o)
 .debug_frame   0x0000c3c8       0x20 /usr/bin/../lib/gcc/arm-none-eabi/4.8.4/../../../../arm-none-eabi/lib/libnosys.a(fstat.o)
 .debug_frame   0x0000c3e8       0x20 /usr/bin/../lib/gcc/arm-none-eabi/4.8.4/../../../../arm-none-eabi/lib/libnosys.a(isatty.o)
 .debug_frame   0x0000c408       0x20 /usr/bin/../lib/gcc/arm-none-eabi/4.8.4/../../../../arm-none-eabi/lib/libnosys.a(lseek.o)
 .debug_frame   0x0000c428       0x20 /usr/bin/../lib/gcc/arm-none-eabi/4.8.4/../../../../arm-none-eabi/lib/libnosys.a(read.o)
 .debug_frame   0x0000c448       0x20 /usr/bin/../lib/gcc/arm-none-eabi/4.8.4/../../../../arm-none-eabi/lib/libnosys.a(write.o)

.stab           0x00000000       0x9c
 .stab          0x00000000       0x24 /usr/bin/../lib/gcc/arm-none-eabi/4.8.4/../../../../arm-none-eabi/lib/libnosys.a(close.o)
 .stab          0x00000024       0x18 /usr/bin/../lib/gcc/arm-none-eabi/4.8.4/../../../../arm-none-eabi/lib/libnosys.a(fstat.o)
                                 0x24 (size before relaxing)
 .stab          0x0000003c       0x18 /usr/bin/../lib/gcc/arm-none-eabi/4.8.4/../../../../arm-none-eabi/lib/libnosys.a(isatty.o)
                                 0x24 (size before relaxing)
 .stab          0x00000054       0x18 /usr/bin/../lib/gcc/arm-none-eabi/4.8.4/../../../../arm-none-eabi/lib/libnosys.a(lseek.o)
                                 0x24 (size before relaxing)
 .stab          0x0000006c       0x18 /usr/bin/../lib/gcc/arm-none-eabi/4.8.4/../../../../arm-none-eabi/lib/libnosys.a(read.o)
                                 0x24 (size before relaxing)
 .stab          0x00000084       0x18 /usr/bin/../lib/gcc/arm-none-eabi/4.8.4/../../../../arm-none-eabi/lib/libnosys.a(write.o)
                                 0x24 (size before relaxing)

.stabstr        0x00000000      0x14d
 .stabstr       0x00000000      0x14d /usr/bin/../lib/gcc/arm-none-eabi/4.8.4/../../../../arm-none-eabi/lib/libnosys.a(close.o)
